

HI-TECH Software PIC LITE Macro Assembler V9.83 build 10920 
                                                                                               Mon Nov 25 22:01:43 2013

HI-TECH Software Omniscient Code Generator (Lite mode) build 10920
     1  0000                     opt subtitle "HI-TECH Software Omniscient Code Generator (Lite mode) build 10920"
     2                           
     3                           opt pagewidth 120
     4                           
     5                           	opt lm
     6                           
     7                           	processor	16F690
     8                           clrc	macro
     9                           	bcf	3,0
    10  0000                     	endm
    11                           clrz	macro
    12                           	bcf	3,2
    13  0000                     	endm
    14                           setc	macro
    15                           	bsf	3,0
    16  0000                     	endm
    17                           setz	macro
    18                           	bsf	3,2
    19  0000                     	endm
    20                           skipc	macro
    21                           	btfss	3,0
    22  0000                     	endm
    23                           skipz	macro
    24                           	btfss	3,2
    25  0000                     	endm
    26                           skipnc	macro
    27                           	btfsc	3,0
    28  0000                     	endm
    29                           skipnz	macro
    30                           	btfsc	3,2
    31  0000                     	endm
    32  0000                     indf	equ	0
    33  0000                     indf0	equ	0
    34  0002                     pc	equ	2
    35  0002                     pcl	equ	2
    36  0003                     status	equ	3
    37  0004                     fsr	equ	4
    38  0004                     fsr0	equ	4
    39  0001                     c	equ	1
    40  0000                     z	equ	0
    41  000A                     pclath	equ	10
    42                           # 31 "../main.c"
    43                           	psect config,class=CONFIG,delta=2 ;#
    44                           # 31 "../main.c"
    45  2007  30E4               	dw 0x3FFC & 0x3FF7 & 0x3FEF & 0x3FFF & 0x3FFF & 0x3FFF & 0x3CFF & 0x3BFF & 0x37FF ;#
    46                           	FNCALL	_main,_init
    47                           	FNCALL	_main,_uart_init
    48                           	FNCALL	_main,_uart_interrupts
    49                           	FNCALL	_main,_putstring_spdswtch
    50                           	FNCALL	_putstring_spdswtch,_putstring
    51                           	FNCALL	_putstring,_put_c
    52                           	FNCALL	_uart_init,___aldiv
    53                           	FNCALL	_init,__delay_ms
    54                           	FNROOT	_main
    55                           	FNCALL	_isr,_readADC
    56                           	FNCALL	_isr,_getc_spdswtch
    57                           	FNCALL	_isr,i1_put_c
    58                           	FNCALL	_readADC,i1_putstring_spdswtch
    59                           	FNCALL	_readADC,_sprintf
    60                           	FNCALL	_readADC,i1_putstring
    61                           	FNCALL	_readADC,i1__delay_ms
    62                           	FNCALL	i1_putstring_spdswtch,i1_putstring
    63                           	FNCALL	i1_putstring,i1_put_c
    64                           	FNCALL	_sprintf,___lwdiv
    65                           	FNCALL	_sprintf,___lwmod
    66                           	FNCALL	_getc_spdswtch,_get_c
    67                           	FNCALL	intlevel1,_isr
    68                           	global	intlevel1
    69                           	FNROOT	intlevel1
    70                           	global	isr@F746
    71                           psect	idataBANK1,class=CODE,space=0,delta=2
    72                           global __pidataBANK1
    73  0531                     __pidataBANK1:
    74                           	file	"../main.c"
    75                           	line	103
    76                           
    77                           ;initializer for isr@F746
    78  0531  3430               	retlw	030h
    79  0532  3400               	retlw	0
    80  0533  3400               	retlw	0
    81  0534  3400               	retlw	0
    82  0535  3400               	retlw	0
    83  0536  3400               	retlw	0
    84  0537  3400               	retlw	0
    85  0538  3400               	retlw	0
    86  0539  3400               	retlw	0
    87  053A  3400               	retlw	0
    88  053B  3400               	retlw	0
    89  053C  3400               	retlw	0
    90  053D  3400               	retlw	0
    91  053E  3400               	retlw	0
    92  053F  3400               	retlw	0
    93  0540  3400               	retlw	0
    94  0541  3400               	retlw	0
    95  0542  3400               	retlw	0
    96  0543  3400               	retlw	0
    97  0544  3400               	retlw	0
    98  0545  3400               	retlw	0
    99  0546  3400               	retlw	0
   100  0547  3400               	retlw	0
   101  0548  3400               	retlw	0
   102  0549  3400               	retlw	0
   103                           	global	_dpowers
   104                           psect	strings,class=STRING,delta=2
   105                           global __pstrings
   106  0300                     __pstrings:
   107                           ;	global	stringdir,stringtab,__stringbase
   108  0300                     stringtab:
   109                           ;	String table - string pointers are 1 byte each
   110  0300  1BFF               	btfsc	(btemp+1),7
   111  0301  2B0A               	ljmp	stringcode
   112  0302  1383               	bcf	status,7
   113  0303  187F               	btfsc	(btemp+1),0
   114  0304  1783               	bsf	status,7
   115  0305  0800               	movf	indf,w
   116  0306  0A84               	incf fsr
   117  0307  1903               skipnz
   118  0308  0AFF               incf btemp+1
   119  0309  0008               	return
   120  030A                     stringcode:stringdir:
      + 030A                     stringdir:	
   121  030A  3003               movlw high(stringdir)
   122  030B  008A               movwf pclath
   123  030C  0804               movf fsr,w
   124  030D  0A84               incf fsr
   125  030E  0782               	addwf pc
   126  030F                     __stringbase:
   127  030F  3400               	retlw	0
   128                           psect	strings
   129                           	file	"/usr/hitech/picc/9.83/lib/doprnt.c"
   130                           	line	350
   131  0310                     _dpowers:
   132  0310  3401               	retlw	01h
   133  0311  3400               	retlw	0
   134                           
   135  0312  340A               	retlw	0Ah
   136  0313  3400               	retlw	0
   137                           
   138  0314  3464               	retlw	064h
   139  0315  3400               	retlw	0
   140                           
   141  0316  34E8               	retlw	0E8h
   142  0317  3403               	retlw	03h
   143                           
   144  0318  3410               	retlw	010h
   145  0319  3427               	retlw	027h
   146                           
   147                           	global	_dpowers
   148                           	global	_counter
   149                           	global	_ADCON0
   150  001F                     _ADCON0	set	31
   151                           	global	_ADRESH
   152  001E                     _ADRESH	set	30
   153                           	global	_PORTB
   154  0006                     _PORTB	set	6
   155                           	global	_PORTC
   156  0007                     _PORTC	set	7
   157                           	global	_RCREG
   158  001A                     _RCREG	set	26
   159                           	global	_RCSTA
   160  0018                     _RCSTA	set	24
   161                           	global	_T1CON
   162  0010                     _T1CON	set	16
   163                           	global	_TXREG
   164  0019                     _TXREG	set	25
   165                           	global	_ADON
   166  00F8                     _ADON	set	248
   167                           	global	_CARRY
   168  0018                     _CARRY	set	24
   169                           	global	_CREN
   170  00C4                     _CREN	set	196
   171                           	global	_FERR
   172  00C2                     _FERR	set	194
   173                           	global	_GIE
   174  005F                     _GIE	set	95
   175                           	global	_GODONE
   176  00F9                     _GODONE	set	249
   177                           	global	_OERR
   178  00C1                     _OERR	set	193
   179                           	global	_PEIE
   180  005E                     _PEIE	set	94
   181                           	global	_RA0
   182  0028                     _RA0	set	40
   183                           	global	_RCIF
   184  0065                     _RCIF	set	101
   185                           	global	_SPEN
   186  00C7                     _SPEN	set	199
   187                           	global	_TMR1IF
   188  0060                     _TMR1IF	set	96
   189                           	global	_TXIF
   190  0064                     _TXIF	set	100
   191                           	global	_ADCON1
   192  009F                     _ADCON1	set	159
   193                           	global	_ADRESL
   194  009E                     _ADRESL	set	158
   195                           	global	_BAUDCTL
   196  009B                     _BAUDCTL	set	155
   197                           	global	_OSCCON
   198  008F                     _OSCCON	set	143
   199                           	global	_SPBRG
   200  0099                     _SPBRG	set	153
   201                           	global	_SPBRGH
   202  009A                     _SPBRGH	set	154
   203                           	global	_TRISA
   204  0085                     _TRISA	set	133
   205                           	global	_TRISB
   206  0086                     _TRISB	set	134
   207                           	global	_TRISC
   208  0087                     _TRISC	set	135
   209                           	global	_TXSTA
   210  0098                     _TXSTA	set	152
   211                           	global	_RCIE
   212  0465                     _RCIE	set	1125
   213                           	global	_TMR1IE
   214  0460                     _TMR1IE	set	1120
   215                           	global	_TXEN
   216  04C5                     _TXEN	set	1221
   217                           	global	_ANSEL
   218  011E                     _ANSEL	set	286
   219                           	global	_ANSELH
   220  011F                     _ANSELH	set	287
   221                           	global	_EEADR
   222  010D                     _EEADR	set	269
   223                           	global	_EEDATA
   224  010C                     _EEDATA	set	268
   225                           	global	_ANS11
   226  08FB                     _ANS11	set	2299
   227                           	global	_EECON1
   228  018C                     _EECON1	set	396
   229                           	global	_EECON2
   230  018D                     _EECON2	set	397
   231                           	global	_RD
   232  0C60                     _RD	set	3168
   233                           	global	_WR
   234  0C61                     _WR	set	3169
   235                           	global	_WREN
   236  0C62                     _WREN	set	3170
   237                           	
   238  031A                     STR_1:	
   239  031A  3457               	retlw	87	;'W'
   240  031B  3465               	retlw	101	;'e'
   241  031C  346C               	retlw	108	;'l'
   242  031D  3463               	retlw	99	;'c'
   243  031E  346F               	retlw	111	;'o'
   244  031F  346D               	retlw	109	;'m'
   245  0320  3465               	retlw	101	;'e'
   246  0321  3420               	retlw	32	;' '
   247  0322  3474               	retlw	116	;'t'
   248  0323  346F               	retlw	111	;'o'
   249  0324  3420               	retlw	32	;' '
   250  0325  3474               	retlw	116	;'t'
   251  0326  3468               	retlw	104	;'h'
   252  0327  3465               	retlw	101	;'e'
   253  0328  3420               	retlw	32	;' '
   254  0329  3462               	retlw	98	;'b'
   255  032A  346F               	retlw	111	;'o'
   256  032B  346E               	retlw	110	;'n'
   257  032C  347A               	retlw	122	;'z'
   258  032D  3461               	retlw	97	;'a'
   259  032E  3469               	retlw	105	;'i'
   260  032F  3420               	retlw	32	;' '
   261  0330  3469               	retlw	105	;'i'
   262  0331  3472               	retlw	114	;'r'
   263  0332  3472               	retlw	114	;'r'
   264  0333  3469               	retlw	105	;'i'
   265  0334  3467               	retlw	103	;'g'
   266  0335  3461               	retlw	97	;'a'
   267  0336  3474               	retlw	116	;'t'
   268  0337  3469               	retlw	105	;'i'
   269  0338  346F               	retlw	111	;'o'
   270  0339  346E               	retlw	110	;'n'
   271  033A  3420               	retlw	32	;' '
   272  033B  3473               	retlw	115	;'s'
   273  033C  3479               	retlw	121	;'y'
   274  033D  3473               	retlw	115	;'s'
   275  033E  3474               	retlw	116	;'t'
   276  033F  3465               	retlw	101	;'e'
   277  0340  346D               	retlw	109	;'m'
   278  0341  3421               	retlw	33	;'!'
   279  0342  340A               	retlw	10
   280  0343  340D               	retlw	13
   281  0344  3400               	retlw	0
   282  0345  3400               	retlw	0
   283                           psect	strings
   284                           	
   285  0346                     STR_2:	
   286  0346  344E               	retlw	78	;'N'
   287  0347  344F               	retlw	79	;'O'
   288  0348  344B               	retlw	75	;'K'
   289  0349  3420               	retlw	32	;' '
   290  034A  3400               	retlw	0
   291  034B  3400               	retlw	0
   292                           psect	strings
   293                           	
   294  034C                     STR_3:	
   295  034C  344D               	retlw	77	;'M'
   296  034D  3425               	retlw	37	;'%'
   297  034E  3464               	retlw	100	;'d'
   298  034F  343B               	retlw	59	;';'
   299  0350  3400               	retlw	0
   300                           psect	strings
   301  034C                     STR_5	equ	STR_3+0
   302  0347                     STR_4	equ	STR_2+1
   303                           	file	"/tmp/cgtCevG3Q"
   304                           	line	#
   305                           psect cinit,class=CODE,delta=2
   306                           global start_initialization
   307  054A                     start_initialization:
   308                           
   309                           psect	bssBANK0,class=BANK0,space=1
   310                           global __pbssBANK0
   311  0061                     __pbssBANK0:
   312  0061                     _counter:
   313  0061                            ds      2
   314                           
   315                           psect	dataBANK1,class=BANK1,space=1
   316                           global __pdataBANK1
   317  00A0                     __pdataBANK1:
   318                           	file	"../main.c"
   319                           	line	103
   320  00A0                     isr@F746:
   321  00A0                            ds      25
   322                           
   323                           ; Clear objects allocated to BANK0
   324                           psect cinit,class=CODE,delta=2
   325  054A  01E1               	clrf	((__pbssBANK0)+0)&07Fh
   326  054B  01E2               	clrf	((__pbssBANK0)+1)&07Fh
   327                           global btemp
   328                           psect inittext,class=CODE,delta=2
   329                           global init_fetch,btemp
   330                           ;	Called with low address in FSR and high address in W
   331  055B                     init_fetch:
   332  055B  087E               	movf btemp,w
   333  055C  008A               	movwf pclath
   334  055D  087F               	movf btemp+1,w
   335  055E  0082               	movwf pc
   336                           global init_ram
   337                           ;Called with:
   338                           ;	high address of idata address in btemp 
   339                           ;	low address of idata address in btemp+1 
   340                           ;	low address of data in FSR
   341                           ;	high address + 1 of data in btemp-1
   342  055F                     init_ram:
   343  055F  118A  255B  118A   	fcall init_fetch
   344  0562  0080               	movwf indf,f
   345  0563  0A84               	incf fsr,f
   346  0564  0804               	movf fsr,w
   347  0565  067D               	xorwf btemp-1,w
   348  0566  1903               	btfsc status,2
   349  0567  3400               	retlw 0
   350  0568  0AFF               	incf btemp+1,f
   351  0569  1903               	btfsc status,2
   352  056A  0AFE               	incf btemp,f
   353  056B  2D5F               	goto init_ram
   354                           ; Initialize objects allocated to BANK1
   355                           psect cinit,class=CODE,delta=2
   356                           global init_ram, __pidataBANK1
   357  054C  1383               	bcf	status, 7	;select IRP bank0
   358  054D  30B9               	movlw low(__pdataBANK1+25)
   359  054E  00FD               	movwf btemp-1,f
   360  054F  3005               	movlw high(__pidataBANK1)
   361  0550  00FE               	movwf btemp,f
   362  0551  3031               	movlw low(__pidataBANK1)
   363  0552  00FF               	movwf btemp+1,f
   364  0553  30A0               	movlw low(__pdataBANK1)
   365  0554  0084               	movwf fsr,f
   366  0555  118A  255F  118A   	fcall init_ram
   367                           psect cinit,class=CODE,delta=2
   368                           global end_of_initialization
   369                           
   370                           ;End of C runtime variable initialization code
   371                           
   372  0558                     end_of_initialization:
   373  0558  0183               clrf status
   374  0559  118A  2D17         ljmp _main	;jump to C main() function
   375                           psect	cstackBANK1,class=BANK1,space=1
   376                           global __pcstackBANK1
   377  00B9                     __pcstackBANK1:
   378                           	global	??_put_c
   379  00B9                     ??_put_c:	; 0 bytes @ 0x0
   380                           	global	??_uart_interrupts
   381  00B9                     ??_uart_interrupts:	; 0 bytes @ 0x0
   382                           	global	?__delay_ms
   383  00B9                     ?__delay_ms:	; 0 bytes @ 0x0
   384                           	global	?___aldiv
   385  00B9                     ?___aldiv:	; 4 bytes @ 0x0
   386                           	global	put_c@c
   387  00B9                     put_c@c:	; 1 bytes @ 0x0
   388                           	global	__delay_ms@ms
   389  00B9                     __delay_ms@ms:	; 2 bytes @ 0x0
   390                           	global	___aldiv@divisor
   391  00B9                     ___aldiv@divisor:	; 4 bytes @ 0x0
   392  00B9                     	ds	1
   393                           	global	?_putstring
   394  00BA                     ?_putstring:	; 0 bytes @ 0x1
   395                           	global	putstring@string
   396  00BA                     putstring@string:	; 2 bytes @ 0x1
   397  00BA                     	ds	1
   398                           	global	??__delay_ms
   399  00BB                     ??__delay_ms:	; 0 bytes @ 0x2
   400  00BB                     	ds	1
   401                           	global	??_putstring
   402  00BC                     ??_putstring:	; 0 bytes @ 0x3
   403                           	global	__delay_ms@i
   404  00BC                     __delay_ms@i:	; 1 bytes @ 0x3
   405                           	global	putstring@chr
   406  00BC                     putstring@chr:	; 2 bytes @ 0x3
   407  00BC                     	ds	1
   408                           	global	__delay_ms@us
   409  00BD                     __delay_ms@us:	; 1 bytes @ 0x4
   410                           	global	___aldiv@dividend
   411  00BD                     ___aldiv@dividend:	; 4 bytes @ 0x4
   412  00BD                     	ds	1
   413                           	global	??_init
   414  00BE                     ??_init:	; 0 bytes @ 0x5
   415                           	global	??_putstring_spdswtch
   416  00BE                     ??_putstring_spdswtch:	; 0 bytes @ 0x5
   417                           	global	putstring_spdswtch@string
   418  00BE                     putstring_spdswtch@string:	; 1 bytes @ 0x5
   419  00BE                     	ds	3
   420                           	global	??___aldiv
   421  00C1                     ??___aldiv:	; 0 bytes @ 0x8
   422  00C1                     	ds	1
   423                           	global	___aldiv@counter
   424  00C2                     ___aldiv@counter:	; 1 bytes @ 0x9
   425  00C2                     	ds	1
   426                           	global	___aldiv@sign
   427  00C3                     ___aldiv@sign:	; 1 bytes @ 0xA
   428  00C3                     	ds	1
   429                           	global	___aldiv@quotient
   430  00C4                     ___aldiv@quotient:	; 4 bytes @ 0xB
   431  00C4                     	ds	4
   432                           	global	?_uart_init
   433  00C8                     ?_uart_init:	; 0 bytes @ 0xF
   434                           	global	uart_init@FOSC
   435  00C8                     uart_init@FOSC:	; 4 bytes @ 0xF
   436  00C8                     	ds	4
   437                           	global	??_uart_init
   438  00CC                     ??_uart_init:	; 0 bytes @ 0x13
   439                           	global	uart_init@BRG_VALUE
   440  00CC                     uart_init@BRG_VALUE:	; 2 bytes @ 0x13
   441  00CC                     	ds	2
   442                           	global	??_main
   443  00CE                     ??_main:	; 0 bytes @ 0x15
   444                           psect	cstackCOMMON,class=COMMON,space=1
   445                           global __pcstackCOMMON
   446  0070                     __pcstackCOMMON:
   447                           	global	?_readADC
   448  0070                     ?_readADC:	; 0 bytes @ 0x0
   449                           	global	?_put_c
   450  0070                     ?_put_c:	; 0 bytes @ 0x0
   451                           	global	?_init
   452  0070                     ?_init:	; 0 bytes @ 0x0
   453                           	global	?_uart_interrupts
   454  0070                     ?_uart_interrupts:	; 0 bytes @ 0x0
   455                           	global	?_putstring_spdswtch
   456  0070                     ?_putstring_spdswtch:	; 0 bytes @ 0x0
   457                           	global	??_get_c
   458  0070                     ??_get_c:	; 0 bytes @ 0x0
   459                           	global	?_isr
   460  0070                     ?_isr:	; 0 bytes @ 0x0
   461                           	global	?_main
   462  0070                     ?_main:	; 0 bytes @ 0x0
   463                           	global	?i1__delay_ms
   464  0070                     ?i1__delay_ms:	; 0 bytes @ 0x0
   465                           	global	?i1_putstring_spdswtch
   466  0070                     ?i1_putstring_spdswtch:	; 0 bytes @ 0x0
   467                           	global	?i1_put_c
   468  0070                     ?i1_put_c:	; 0 bytes @ 0x0
   469                           	global	??i1_put_c
   470  0070                     ??i1_put_c:	; 0 bytes @ 0x0
   471                           	global	?_getc_spdswtch
   472  0070                     ?_getc_spdswtch:	; 1 bytes @ 0x0
   473                           	global	?_get_c
   474  0070                     ?_get_c:	; 1 bytes @ 0x0
   475                           	global	?___lwdiv
   476  0070                     ?___lwdiv:	; 2 bytes @ 0x0
   477                           	global	i1put_c@c
   478  0070                     i1put_c@c:	; 1 bytes @ 0x0
   479                           	global	___lwdiv@divisor
   480  0070                     ___lwdiv@divisor:	; 2 bytes @ 0x0
   481                           	global	i1__delay_ms@ms
   482  0070                     i1__delay_ms@ms:	; 2 bytes @ 0x0
   483  0070                     	ds	1
   484                           	global	?i1_putstring
   485  0071                     ?i1_putstring:	; 0 bytes @ 0x1
   486                           	global	get_c@c
   487  0071                     get_c@c:	; 1 bytes @ 0x1
   488                           	global	i1putstring@string
   489  0071                     i1putstring@string:	; 2 bytes @ 0x1
   490  0071                     	ds	1
   491                           	global	??_getc_spdswtch
   492  0072                     ??_getc_spdswtch:	; 0 bytes @ 0x2
   493                           	global	??i1__delay_ms
   494  0072                     ??i1__delay_ms:	; 0 bytes @ 0x2
   495                           	global	___lwdiv@dividend
   496  0072                     ___lwdiv@dividend:	; 2 bytes @ 0x2
   497  0072                     	ds	1
   498                           	global	??i1_putstring
   499  0073                     ??i1_putstring:	; 0 bytes @ 0x3
   500                           	global	i1__delay_ms@i
   501  0073                     i1__delay_ms@i:	; 1 bytes @ 0x3
   502                           	global	i1putstring@chr
   503  0073                     i1putstring@chr:	; 2 bytes @ 0x3
   504  0073                     	ds	1
   505                           	global	??___lwdiv
   506  0074                     ??___lwdiv:	; 0 bytes @ 0x4
   507                           	global	i1__delay_ms@us
   508  0074                     i1__delay_ms@us:	; 1 bytes @ 0x4
   509  0074                     	ds	1
   510                           	global	??i1_putstring_spdswtch
   511  0075                     ??i1_putstring_spdswtch:	; 0 bytes @ 0x5
   512                           	global	i1putstring_spdswtch@string
   513  0075                     i1putstring_spdswtch@string:	; 1 bytes @ 0x5
   514                           	global	___lwdiv@quotient
   515  0075                     ___lwdiv@quotient:	; 2 bytes @ 0x5
   516  0075                     	ds	2
   517                           	global	___lwdiv@counter
   518  0077                     ___lwdiv@counter:	; 1 bytes @ 0x7
   519  0077                     	ds	1
   520                           	global	?___lwmod
   521  0078                     ?___lwmod:	; 2 bytes @ 0x8
   522                           	global	___lwmod@divisor
   523  0078                     ___lwmod@divisor:	; 2 bytes @ 0x8
   524  0078                     	ds	2
   525                           	global	___lwmod@dividend
   526  007A                     ___lwmod@dividend:	; 2 bytes @ 0xA
   527  007A                     	ds	2
   528                           	global	??___lwmod
   529  007C                     ??___lwmod:	; 0 bytes @ 0xC
   530  007C                     	ds	1
   531                           	global	___lwmod@counter
   532  007D                     ___lwmod@counter:	; 1 bytes @ 0xD
   533  007D                     	ds	1
   534                           psect	cstackBANK0,class=BANK0,space=1
   535                           global __pcstackBANK0
   536  0020                     __pcstackBANK0:
   537                           	global	?_sprintf
   538  0020                     ?_sprintf:	; 2 bytes @ 0x0
   539                           	global	sprintf@f
   540  0020                     sprintf@f:	; 1 bytes @ 0x0
   541  0020                     	ds	3
   542                           	global	??_sprintf
   543  0023                     ??_sprintf:	; 0 bytes @ 0x3
   544  0023                     	ds	3
   545                           	global	sprintf@ap
   546  0026                     sprintf@ap:	; 1 bytes @ 0x6
   547  0026                     	ds	1
   548                           	global	sprintf@flag
   549  0027                     sprintf@flag:	; 1 bytes @ 0x7
   550  0027                     	ds	1
   551                           	global	sprintf@prec
   552  0028                     sprintf@prec:	; 1 bytes @ 0x8
   553  0028                     	ds	1
   554                           	global	sprintf@_val
   555  0029                     sprintf@_val:	; 4 bytes @ 0x9
   556  0029                     	ds	4
   557                           	global	sprintf@sp
   558  002D                     sprintf@sp:	; 1 bytes @ 0xD
   559  002D                     	ds	1
   560                           	global	sprintf@c
   561  002E                     sprintf@c:	; 1 bytes @ 0xE
   562  002E                     	ds	1
   563                           	global	??_readADC
   564  002F                     ??_readADC:	; 0 bytes @ 0xF
   565  002F                     	ds	2
   566                           	global	readADC@output
   567  0031                     readADC@output:	; 10 bytes @ 0x11
   568  0031                     	ds	10
   569                           	global	readADC@adcValue
   570  003B                     readADC@adcValue:	; 2 bytes @ 0x1B
   571  003B                     	ds	2
   572                           	global	??_isr
   573  003D                     ??_isr:	; 0 bytes @ 0x1D
   574  003D                     	ds	8
   575                           	global	isr@input
   576  0045                     isr@input:	; 25 bytes @ 0x25
   577  0045                     	ds	25
   578                           	global	isr@retval
   579  005E                     isr@retval:	; 1 bytes @ 0x3E
   580  005E                     	ds	1
   581                           	global	isr@input_counter
   582  005F                     isr@input_counter:	; 2 bytes @ 0x3F
   583  005F                     	ds	2
   584 ;;Data sizes: Strings 55, constant 10, data 25, bss 2, persistent 0 stack 0
   585 ;;Auto spaces:   Size  Autos    Used
   586 ;; COMMON          14     14      14
   587 ;; BANK0           80     65      67
   588 ;; BANK1           80     21      46
   589 ;; BANK2           80      0       0
   590                           
   591 ;;
   592 ;; Pointer list with targets:
   593                           
   594 ;; i1putstring@string	PTR unsigned char  size(2) Largest target is 44
   595 ;;		 -> STR_4(CODE[5]), readADC@output(BANK0[10]), STR_2(CODE[6]), STR_1(CODE[44]), 
   596 ;;
   597 ;; i1putstring_spdswtch@string	PTR unsigned char  size(1) Largest target is 6
   598 ;;		 -> STR_4(CODE[5]), STR_2(CODE[6]), 
   599 ;;
   600 ;; ?___lwdiv	unsigned int  size(1) Largest target is 0
   601 ;;
   602 ;; ?___lwmod	unsigned int  size(1) Largest target is 0
   603 ;;
   604 ;; ?___aldiv	long  size(1) Largest target is 0
   605 ;;
   606 ;; sprintf@f	PTR const unsigned char  size(1) Largest target is 5
   607 ;;		 -> STR_5(CODE[5]), STR_3(CODE[5]), 
   608 ;;
   609 ;; sprintf@sp	PTR unsigned char  size(1) Largest target is 10
   610 ;;		 -> readADC@output(BANK0[10]), 
   611 ;;
   612 ;; ?_sprintf	int  size(1) Largest target is 0
   613 ;;
   614 ;; sprintf@ap	PTR void [1] size(1) Largest target is 2
   615 ;;		 -> ?_sprintf(BANK0[2]), 
   616 ;;
   617 ;; S2024$_cp	PTR const unsigned char  size(1) Largest target is 0
   618 ;;
   619 ;; _val._str._cp	PTR const unsigned char  size(1) Largest target is 0
   620 ;;
   621 ;; putstring@string	PTR unsigned char  size(2) Largest target is 44
   622 ;;		 -> STR_4(CODE[5]), readADC@output(BANK0[10]), STR_2(CODE[6]), STR_1(CODE[44]), 
   623 ;;
   624 ;; putstring_spdswtch@string	PTR unsigned char  size(1) Largest target is 44
   625 ;;		 -> STR_4(CODE[5]), STR_2(CODE[6]), STR_1(CODE[44]), 
   626 ;;
   627                           
   628                           
   629 ;;
   630 ;; Critical Paths under _main in COMMON
   631 ;;
   632 ;;   None.
   633 ;;
   634 ;; Critical Paths under _isr in COMMON
   635 ;;
   636 ;;   i1_putstring_spdswtch->i1_putstring
   637 ;;   i1_putstring->i1_put_c
   638 ;;   _sprintf->___lwmod
   639 ;;   _getc_spdswtch->_get_c
   640 ;;   ___lwmod->___lwdiv
   641 ;;
   642 ;; Critical Paths under _main in BANK0
   643 ;;
   644 ;;   None.
   645 ;;
   646 ;; Critical Paths under _isr in BANK0
   647 ;;
   648 ;;   _isr->_readADC
   649 ;;   _readADC->_sprintf
   650 ;;
   651 ;; Critical Paths under _main in BANK1
   652 ;;
   653 ;;   _main->_uart_init
   654 ;;   _putstring_spdswtch->_putstring
   655 ;;   _putstring->_put_c
   656 ;;   _uart_init->___aldiv
   657 ;;   _init->__delay_ms
   658 ;;
   659 ;; Critical Paths under _isr in BANK1
   660 ;;
   661 ;;   None.
   662 ;;
   663 ;; Critical Paths under _main in BANK2
   664 ;;
   665 ;;   None.
   666 ;;
   667 ;; Critical Paths under _isr in BANK2
   668 ;;
   669 ;;   None.
   670                           
   671 ;;
   672 ;;Main: autosize = 0, tempsize = 0, incstack = 0, save=0
   673 ;;
   674                           
   675 ;;
   676 ;;Call Graph Tables:
   677 ;;
   678 ;; ---------------------------------------------------------------------------------
   679 ;; (Depth) Function   	        Calls       Base Space   Used Autos Params    Refs
   680 ;; ---------------------------------------------------------------------------------
   681 ;; (0) _main                                                 0     0      0     569
   682 ;;                               _init
   683 ;;                          _uart_init
   684 ;;                    _uart_interrupts
   685 ;;                 _putstring_spdswtch
   686 ;; ---------------------------------------------------------------------------------
   687 ;; (1) _putstring_spdswtch                                   1     1      0     134
   688 ;;                                              5 BANK1      1     1      0
   689 ;;                          _putstring
   690 ;; ---------------------------------------------------------------------------------
   691 ;; (2) _putstring                                            4     2      2     112
   692 ;;                                              1 BANK1      4     2      2
   693 ;;                              _put_c
   694 ;; ---------------------------------------------------------------------------------
   695 ;; (1) _uart_init                                            6     2      4     367
   696 ;;                                             15 BANK1      6     2      4
   697 ;;                            ___aldiv
   698 ;; ---------------------------------------------------------------------------------
   699 ;; (1) _init                                                 0     0      0      68
   700 ;;                          __delay_ms
   701 ;; ---------------------------------------------------------------------------------
   702 ;; (2) ___aldiv                                             15     7      8     300
   703 ;;                                              0 BANK1     15     7      8
   704 ;; ---------------------------------------------------------------------------------
   705 ;; (2) __delay_ms                                            5     3      2      68
   706 ;;                                              0 BANK1      5     3      2
   707 ;; ---------------------------------------------------------------------------------
   708 ;; (1) _uart_interrupts                                      0     0      0       0
   709 ;; ---------------------------------------------------------------------------------
   710 ;; (3) _put_c                                                1     1      0      22
   711 ;;                                              0 BANK1      1     1      0
   712 ;; ---------------------------------------------------------------------------------
   713 ;; Estimated maximum stack depth 3
   714 ;; ---------------------------------------------------------------------------------
   715 ;; (Depth) Function   	        Calls       Base Space   Used Autos Params    Refs
   716 ;; ---------------------------------------------------------------------------------
   717 ;; (4) _isr                                                 36    36      0    2362
   718 ;;                                             29 BANK0     36    36      0
   719 ;;                            _readADC
   720 ;;                      _getc_spdswtch
   721 ;;                            i1_put_c
   722 ;; ---------------------------------------------------------------------------------
   723 ;; (5) _readADC                                             14    14      0    2002
   724 ;;                                             15 BANK0     14    14      0
   725 ;;               i1_putstring_spdswtch
   726 ;;                            _sprintf
   727 ;;                        i1_putstring
   728 ;;                        i1__delay_ms
   729 ;; ---------------------------------------------------------------------------------
   730 ;; (6) i1_putstring_spdswtch                                 1     1      0     442
   731 ;;                                              5 COMMON     1     1      0
   732 ;;                        i1_putstring
   733 ;; ---------------------------------------------------------------------------------
   734 ;; (6) i1_putstring                                          4     2      2     369
   735 ;;                                              1 COMMON     4     2      2
   736 ;;                            i1_put_c
   737 ;; ---------------------------------------------------------------------------------
   738 ;; (6) _sprintf                                             15    12      3     798
   739 ;;                                              0 BANK0     15    12      3
   740 ;;                            ___lwdiv
   741 ;;                            ___lwmod
   742 ;; ---------------------------------------------------------------------------------
   743 ;; (5) _getc_spdswtch                                        0     0      0       9
   744 ;;                              _get_c
   745 ;; ---------------------------------------------------------------------------------
   746 ;; (5) i1_put_c                                              1     1      0      73
   747 ;;                                              0 COMMON     1     1      0
   748 ;; ---------------------------------------------------------------------------------
   749 ;; (6) i1__delay_ms                                          5     3      2     223
   750 ;;                                              0 COMMON     5     3      2
   751 ;; ---------------------------------------------------------------------------------
   752 ;; (7) ___lwmod                                              6     2      4     159
   753 ;;                                              8 COMMON     6     2      4
   754 ;;                            ___lwdiv (ARG)
   755 ;; ---------------------------------------------------------------------------------
   756 ;; (7) ___lwdiv                                              8     4      4     162
   757 ;;                                              0 COMMON     8     4      4
   758 ;; ---------------------------------------------------------------------------------
   759 ;; (6) _get_c                                                2     2      0       9
   760 ;;                                              0 COMMON     2     2      0
   761 ;; ---------------------------------------------------------------------------------
   762 ;; Estimated maximum stack depth 7
   763 ;; ---------------------------------------------------------------------------------
   764                           
   765 ;; Call Graph Graphs:
   766                           
   767 ;; _main (ROOT)
   768 ;;   _init
   769 ;;     __delay_ms
   770 ;;   _uart_init
   771 ;;     ___aldiv
   772 ;;   _uart_interrupts
   773 ;;   _putstring_spdswtch
   774 ;;     _putstring
   775 ;;       _put_c
   776 ;;
   777 ;; _isr (ROOT)
   778 ;;   _readADC
   779 ;;     i1_putstring_spdswtch
   780 ;;       i1_putstring
   781 ;;         i1_put_c
   782 ;;     _sprintf
   783 ;;       ___lwdiv
   784 ;;       ___lwmod
   785 ;;         ___lwdiv (ARG)
   786 ;;     i1_putstring
   787 ;;       i1_put_c
   788 ;;     i1__delay_ms
   789 ;;   _getc_spdswtch
   790 ;;     _get_c
   791 ;;   i1_put_c
   792 ;;
   793                           
   794 ;; Address spaces:
   795                           
   796 ;;Name               Size   Autos  Total    Cost      Usage
   797 ;;SFR3                 0      0       0       4        0.0%
   798 ;;BITSFR3              0      0       0       4        0.0%
   799 ;;BANK2               50      0       0       7        0.0%
   800 ;;BITBANK2            50      0       0       6        0.0%
   801 ;;SFR2                 0      0       0       5        0.0%
   802 ;;BITSFR2              0      0       0       5        0.0%
   803 ;;SFR1                 0      0       0       2        0.0%
   804 ;;BITSFR1              0      0       0       2        0.0%
   805 ;;BANK1               50     15      2E       5       57.5%
   806 ;;BITBANK1            50      0       0       4        0.0%
   807 ;;CODE                 0      0       0       0        0.0%
   808 ;;DATA                 0      0      8C      10        0.0%
   809 ;;ABS                  0      0      7F       8        0.0%
   810 ;;NULL                 0      0       0       0        0.0%
   811 ;;STACK                0      0       D       2        0.0%
   812 ;;BANK0               50     41      43       3       83.8%
   813 ;;BITBANK0            50      0       0       9        0.0%
   814 ;;SFR0                 0      0       0       1        0.0%
   815 ;;BITSFR0              0      0       0       1        0.0%
   816 ;;COMMON               E      E       E       1      100.0%
   817 ;;BITCOMMON            E      0       0       0        0.0%
   818 ;;EEDATA             100      0       0       0        0.0%
   819                           
   820                           	global	_main
   821                           psect	maintext,global,class=CODE,delta=2
   822                           global __pmaintext
   823  0517                     __pmaintext:
   824                           
   825 ;; *************** function _main *****************
   826 ;; Defined at:
   827 ;;		line 126 in file "../main.c"
   828 ;; Parameters:    Size  Location     Type
   829 ;;		None
   830 ;; Auto vars:     Size  Location     Type
   831 ;;		None
   832 ;; Return value:  Size  Location     Type
   833 ;;		None               void
   834 ;; Registers used:
   835 ;;		wreg, fsr0l, fsr0h, status,2, status,0, btemp+1, pclath, cstack
   836 ;; Tracked objects:
   837 ;;		On entry : 17F/0
   838 ;;		On exit  : 0/0
   839 ;;		Unchanged: 0/0
   840 ;; Data sizes:     COMMON   BANK0   BANK1   BANK2
   841 ;;      Params:         0       0       0       0
   842 ;;      Locals:         0       0       0       0
   843 ;;      Temps:          0       0       0       0
   844 ;;      Totals:         0       0       0       0
   845 ;;Total ram usage:        0 bytes
   846 ;; Hardware stack levels required when called:    8
   847 ;; This function calls:
   848 ;;		_init
   849 ;;		_uart_init
   850 ;;		_uart_interrupts
   851 ;;		_putstring_spdswtch
   852 ;; This function is called by:
   853 ;;		Startup code after reset
   854 ;; This function uses a non-reentrant model
   855 ;;
   856                           psect	maintext
   857                           	file	"../main.c"
   858                           	line	126
   859                           	global	__size_of_main
   860  001A                     	__size_of_main	equ	__end_of_main-_main
   861                           	
   862  0517                     _main:	
   863                           	opt	stack 0
   864                           ; Regs used in _main: [wreg-fsr0h+status,2+status,0+btemp+1+pclath+cstack]
   865                           	line	127
   866                           	
   867  0517                     l4490:	
   868                           ;main.c: 127: init();
   869  0517  118A  2450  118A   	fcall	_init
   870                           	line	128
   871                           ;main.c: 128: uart_init(8000000L);
   872  051A  3000               	movlw	0
   873  051B  1683               	bsf	status, 5	;RP0=1, select bank1
   874  051C  1303               	bcf	status, 6	;RP1=0, select bank1
   875  051D  00CB               	movwf	(?_uart_init+3)^080h
   876  051E  307A               	movlw	07Ah
   877  051F  00CA               	movwf	(?_uart_init+2)^080h
   878  0520  3012               	movlw	012h
   879  0521  00C9               	movwf	(?_uart_init+1)^080h
   880  0522  3000               	movlw	0
   881  0523  00C8               	movwf	(?_uart_init)^080h
   882                           
   883  0524  118A  23E3  118A   	fcall	_uart_init
   884                           	line	129
   885                           	
   886  0527                     l4492:	
   887                           ;main.c: 129: uart_interrupts();
   888  0527  118A  259D  118A   	fcall	_uart_interrupts
   889                           	line	131
   890                           	
   891  052A                     l4494:	
   892                           ;main.c: 131: putstring_spdswtch("Welcome to the bonzai irrigation system!\n\r\0");
   893  052A  300B               	movlw	((STR_1-__stringbase))&0ffh
   894  052B  118A  2589  118A   	fcall	_putstring_spdswtch
   895                           	line	133
   896                           ;main.c: 133: for(;;){
   897                           	
   898  052E                     l746:	
   899                           	line	135
   900                           ;main.c: 135: }
   901  052E  2D2E               	goto	l746
   902                           	
   903  052F                     l747:	
   904                           	line	136
   905                           	
   906  052F                     l748:	
   907                           	global	start
   908  052F  118A  2811         	ljmp	start
   909                           	opt stack 0
   910                           GLOBAL	__end_of_main
   911  0531                     	__end_of_main:
   912 ;; =============== function _main ends ============
   913                           
   914                           	signat	_main,88
   915                           	global	_putstring_spdswtch
   916                           psect	text476,local,class=CODE,delta=2
   917                           global __ptext476
   918  0589                     __ptext476:
   919                           
   920 ;; *************** function _putstring_spdswtch *****************
   921 ;; Defined at:
   922 ;;		line 216 in file "../main.c"
   923 ;; Parameters:    Size  Location     Type
   924 ;;  string          1    wreg     PTR unsigned char 
   925 ;;		 -> STR_4(5), STR_2(6), STR_1(44), 
   926 ;; Auto vars:     Size  Location     Type
   927 ;;  string          1    5[BANK1 ] PTR unsigned char 
   928 ;;		 -> STR_4(5), STR_2(6), STR_1(44), 
   929 ;; Return value:  Size  Location     Type
   930 ;;		None               void
   931 ;; Registers used:
   932 ;;		wreg, fsr0l, fsr0h, status,2, status,0, btemp+1, pclath, cstack
   933 ;; Tracked objects:
   934 ;;		On entry : 0/0
   935 ;;		On exit  : 0/0
   936 ;;		Unchanged: 0/0
   937 ;; Data sizes:     COMMON   BANK0   BANK1   BANK2
   938 ;;      Params:         0       0       0       0
   939 ;;      Locals:         0       0       1       0
   940 ;;      Temps:          0       0       0       0
   941 ;;      Totals:         0       0       1       0
   942 ;;Total ram usage:        1 bytes
   943 ;; Hardware stack levels used:    1
   944 ;; Hardware stack levels required when called:    7
   945 ;; This function calls:
   946 ;;		_putstring
   947 ;; This function is called by:
   948 ;;		_main
   949 ;; This function uses a non-reentrant model
   950 ;;
   951                           psect	text476
   952                           	file	"../main.c"
   953                           	line	216
   954                           	global	__size_of_putstring_spdswtch
   955  000B                     	__size_of_putstring_spdswtch	equ	__end_of_putstring_spdswtch-_putstring_spdswtch
   956                           	
   957  0589                     _putstring_spdswtch:	
   958                           	opt	stack 0
   959                           ; Regs used in _putstring_spdswtch: [wreg-fsr0h+status,2+status,0+btemp+1+pclath+cstack]
   960                           ;putstring_spdswtch@string stored from wreg
   961                           	line	222
   962  0589  1683               	bsf	status, 5	;RP0=1, select bank1
   963  058A  1303               	bcf	status, 6	;RP1=0, select bank1
   964  058B  00BE               	movwf	(putstring_spdswtch@string)^080h
   965                           	
   966  058C                     l4488:	
   967                           ;main.c: 222: putstring(string);
   968  058C  083E               	movf	(putstring_spdswtch@string)^080h,w
   969  058D  00BA               	movwf	(?_putstring)^080h
   970  058E  3080               	movlw	80h
   971  058F  00BB               	movwf	(?_putstring+1)^080h
   972  0590  118A  241E  118A   	fcall	_putstring
   973                           	line	227
   974                           	
   975  0593                     l775:	
   976  0593  0008               	return
   977                           	opt stack 0
   978                           GLOBAL	__end_of_putstring_spdswtch
   979  0594                     	__end_of_putstring_spdswtch:
   980 ;; =============== function _putstring_spdswtch ends ============
   981                           
   982                           	signat	_putstring_spdswtch,4216
   983                           	global	_putstring
   984                           psect	text477,local,class=CODE,delta=2
   985                           global __ptext477
   986  041E                     __ptext477:
   987                           
   988 ;; *************** function _putstring *****************
   989 ;; Defined at:
   990 ;;		line 28 in file "../uart.c"
   991 ;; Parameters:    Size  Location     Type
   992 ;;  string          2    1[BANK1 ] PTR unsigned char 
   993 ;;		 -> STR_4(5), readADC@output(10), STR_2(6), STR_1(44), 
   994 ;; Auto vars:     Size  Location     Type
   995 ;;  chr             2    3[BANK1 ] int 
   996 ;; Return value:  Size  Location     Type
   997 ;;		None               void
   998 ;; Registers used:
   999 ;;		wreg, fsr0l, fsr0h, status,2, status,0, btemp+1, pclath, cstack
  1000 ;; Tracked objects:
  1001 ;;		On entry : 0/0
  1002 ;;		On exit  : 0/0
  1003 ;;		Unchanged: 0/0
  1004 ;; Data sizes:     COMMON   BANK0   BANK1   BANK2
  1005 ;;      Params:         0       0       2       0
  1006 ;;      Locals:         0       0       2       0
  1007 ;;      Temps:          0       0       0       0
  1008 ;;      Totals:         0       0       4       0
  1009 ;;Total ram usage:        4 bytes
  1010 ;; Hardware stack levels used:    1
  1011 ;; Hardware stack levels required when called:    6
  1012 ;; This function calls:
  1013 ;;		_put_c
  1014 ;; This function is called by:
  1015 ;;		_putstring_spdswtch
  1016 ;; This function uses a non-reentrant model
  1017 ;;
  1018                           psect	text477
  1019                           	file	"../uart.c"
  1020                           	line	28
  1021                           	global	__size_of_putstring
  1022  0032                     	__size_of_putstring	equ	__end_of_putstring-_putstring
  1023                           	
  1024  041E                     _putstring:	
  1025 ;; using string table level
  1026                           	opt	stack 1
  1027                           ; Regs used in _putstring: [wreg-fsr0h+status,2+status,0+btemp+1+pclath+cstack]
  1028                           	line	29
  1029                           	
  1030  041E                     l4480:	
  1031                           ;uart.c: 29: int chr = 0;
  1032  041E  1683               	bsf	status, 5	;RP0=1, select bank1
  1033  041F  1303               	bcf	status, 6	;RP1=0, select bank1
  1034  0420  01BC               	clrf	(putstring@chr)^080h
  1035  0421  01BD               	clrf	(putstring@chr+1)^080h
  1036                           	line	30
  1037                           ;uart.c: 30: while(string[chr] != '\0')
  1038  0422  2C3D               	goto	l4486
  1039                           	
  1040  0423                     l1671:	
  1041                           	line	32
  1042                           	
  1043  0423                     l4482:	
  1044                           ;uart.c: 31: {
  1045                           ;uart.c: 32: put_c(string[chr]);
  1046  0423  1683               	bsf	status, 5	;RP0=1, select bank1
  1047  0424  1303               	bcf	status, 6	;RP1=0, select bank1
  1048  0425  083C               	movf	(putstring@chr)^080h,w
  1049  0426  073A               	addwf	(putstring@string)^080h,w
  1050  0427  0084               	movwf	fsr0
  1051  0428  083B               	movf	(putstring@string+1)^080h,w
  1052  0429  1803               	skipnc
  1053  042A  0A3B               	incf	(putstring@string+1)^080h,w
  1054  042B  1283               	bcf	status, 5	;RP0=0, select bank0
  1055  042C  1303               	bcf	status, 6	;RP1=0, select bank0
  1056  042D  00FF               	movwf	btemp+1
  1057  042E  118A  2300  118A   	fcall	stringtab
  1058  0431  118A  256C  118A   	fcall	_put_c
  1059                           	line	33
  1060                           	
  1061  0434                     l4484:	
  1062                           ;uart.c: 33: chr++;
  1063  0434  3001               	movlw	low(01h)
  1064  0435  1683               	bsf	status, 5	;RP0=1, select bank1
  1065  0436  1303               	bcf	status, 6	;RP1=0, select bank1
  1066  0437  07BC               	addwf	(putstring@chr)^080h,f
  1067  0438  1803               	skipnc
  1068  0439  0ABD               	incf	(putstring@chr+1)^080h,f
  1069  043A  3000               	movlw	high(01h)
  1070  043B  07BD               	addwf	(putstring@chr+1)^080h,f
  1071  043C  2C3D               	goto	l4486
  1072                           	line	34
  1073                           	
  1074  043D                     l1670:	
  1075                           	line	30
  1076                           	
  1077  043D                     l4486:	
  1078  043D  083C               	movf	(putstring@chr)^080h,w
  1079  043E  073A               	addwf	(putstring@string)^080h,w
  1080  043F  0084               	movwf	fsr0
  1081  0440  083B               	movf	(putstring@string+1)^080h,w
  1082  0441  1803               	skipnc
  1083  0442  0A3B               	incf	(putstring@string+1)^080h,w
  1084  0443  1283               	bcf	status, 5	;RP0=0, select bank0
  1085  0444  1303               	bcf	status, 6	;RP1=0, select bank0
  1086  0445  00FF               	movwf	btemp+1
  1087  0446  118A  2300  118A   	fcall	stringtab
  1088  0449  3800               	iorlw	0
  1089  044A  1D03               	skipz
  1090  044B  2C4D               	goto	u3091
  1091  044C  2C4E               	goto	u3090
  1092  044D                     u3091:
  1093  044D  2C23               	goto	l4482
  1094  044E                     u3090:
  1095  044E  2C4F               	goto	l1673
  1096                           	
  1097  044F                     l1672:	
  1098                           	line	35
  1099                           	
  1100  044F                     l1673:	
  1101  044F  0008               	return
  1102                           	opt stack 0
  1103                           GLOBAL	__end_of_putstring
  1104  0450                     	__end_of_putstring:
  1105 ;; =============== function _putstring ends ============
  1106                           
  1107                           	signat	_putstring,4216
  1108                           	global	_uart_init
  1109                           psect	text478,local,class=CODE,delta=2
  1110                           global __ptext478
  1111  03E3                     __ptext478:
  1112                           
  1113 ;; *************** function _uart_init *****************
  1114 ;; Defined at:
  1115 ;;		line 7 in file "../uart.c"
  1116 ;; Parameters:    Size  Location     Type
  1117 ;;  FOSC            4   15[BANK1 ] long 
  1118 ;; Auto vars:     Size  Location     Type
  1119 ;;  BRG_VALUE       2   19[BANK1 ] int 
  1120 ;; Return value:  Size  Location     Type
  1121 ;;		None               void
  1122 ;; Registers used:
  1123 ;;		wreg, status,2, status,0, pclath, cstack
  1124 ;; Tracked objects:
  1125 ;;		On entry : 0/0
  1126 ;;		On exit  : 0/0
  1127 ;;		Unchanged: 0/0
  1128 ;; Data sizes:     COMMON   BANK0   BANK1   BANK2
  1129 ;;      Params:         0       0       4       0
  1130 ;;      Locals:         0       0       2       0
  1131 ;;      Temps:          0       0       0       0
  1132 ;;      Totals:         0       0       6       0
  1133 ;;Total ram usage:        6 bytes
  1134 ;; Hardware stack levels used:    1
  1135 ;; Hardware stack levels required when called:    6
  1136 ;; This function calls:
  1137 ;;		___aldiv
  1138 ;; This function is called by:
  1139 ;;		_main
  1140 ;; This function uses a non-reentrant model
  1141 ;;
  1142                           psect	text478
  1143                           	file	"../uart.c"
  1144                           	line	7
  1145                           	global	__size_of_uart_init
  1146  003B                     	__size_of_uart_init	equ	__end_of_uart_init-_uart_init
  1147                           	
  1148  03E3                     _uart_init:	
  1149                           	opt	stack 1
  1150                           ; Regs used in _uart_init: [wreg+status,2+status,0+pclath+cstack]
  1151                           	line	8
  1152                           	
  1153  03E3                     l4456:	
  1154                           ;uart.c: 8: int BRG_VALUE = ((FOSC / (4800L * 4L)) - 1L);
  1155  03E3  3000               	movlw	0
  1156  03E4  1683               	bsf	status, 5	;RP0=1, select bank1
  1157  03E5  1303               	bcf	status, 6	;RP1=0, select bank1
  1158  03E6  00BC               	movwf	(?___aldiv+3)^080h
  1159  03E7  3000               	movlw	0
  1160  03E8  00BB               	movwf	(?___aldiv+2)^080h
  1161  03E9  304B               	movlw	04Bh
  1162  03EA  00BA               	movwf	(?___aldiv+1)^080h
  1163  03EB  3000               	movlw	0
  1164  03EC  00B9               	movwf	(?___aldiv)^080h
  1165                           
  1166  03ED  084B               	movf	(uart_init@FOSC+3)^080h,w
  1167  03EE  00C0               	movwf	3+(?___aldiv)^080h+04h
  1168  03EF  084A               	movf	(uart_init@FOSC+2)^080h,w
  1169  03F0  00BF               	movwf	2+(?___aldiv)^080h+04h
  1170  03F1  0849               	movf	(uart_init@FOSC+1)^080h,w
  1171  03F2  00BE               	movwf	1+(?___aldiv)^080h+04h
  1172  03F3  0848               	movf	(uart_init@FOSC)^080h,w
  1173  03F4  00BD               	movwf	0+(?___aldiv)^080h+04h
  1174                           
  1175  03F5  118A  21B9  118A   	fcall	___aldiv
  1176  03F8  1683               	bsf	status, 5	;RP0=1, select bank1
  1177  03F9  1303               	bcf	status, 6	;RP1=0, select bank1
  1178  03FA  0839               	movf	0+(((0+(?___aldiv))^080h)),w
  1179  03FB  3EFF               	addlw	low(-1)
  1180  03FC  00CC               	movwf	(uart_init@BRG_VALUE)^080h
  1181  03FD  083A               	movf	1+(((0+(?___aldiv))^080h)),w
  1182  03FE  1803               	skipnc
  1183  03FF  3E01               	addlw	1
  1184  0400  3EFF               	addlw	high(-1)
  1185  0401  00CD               	movwf	1+(uart_init@BRG_VALUE)^080h
  1186                           	line	11
  1187                           	
  1188  0402                     l4458:	
  1189                           ;uart.c: 11: BAUDCTL = 0x08;
  1190  0402  3008               	movlw	(08h)
  1191  0403  009B               	movwf	(155)^080h	;volatile
  1192                           	line	12
  1193                           	
  1194  0404                     l4460:	
  1195                           ;uart.c: 12: TXSTA = 0x04;
  1196  0404  3004               	movlw	(04h)
  1197  0405  0098               	movwf	(152)^080h	;volatile
  1198                           	line	13
  1199                           	
  1200  0406                     l4462:	
  1201                           ;uart.c: 13: RCSTA = 0x00;
  1202  0406  1283               	bcf	status, 5	;RP0=0, select bank0
  1203  0407  1303               	bcf	status, 6	;RP1=0, select bank0
  1204  0408  0198               	clrf	(24)	;volatile
  1205                           	line	14
  1206                           	
  1207  0409                     l4464:	
  1208                           ;uart.c: 14: SPBRGH = BRG_VALUE >> 8;
  1209  0409  1683               	bsf	status, 5	;RP0=1, select bank1
  1210  040A  1303               	bcf	status, 6	;RP1=0, select bank1
  1211  040B  084D               	movf	(uart_init@BRG_VALUE+1)^080h,w
  1212  040C  009A               	movwf	(154)^080h	;volatile
  1213                           	line	15
  1214                           	
  1215  040D                     l4466:	
  1216                           ;uart.c: 15: SPBRG = BRG_VALUE & 0xFF;
  1217  040D  084C               	movf	(uart_init@BRG_VALUE)^080h,w
  1218  040E  0099               	movwf	(153)^080h	;volatile
  1219                           	line	16
  1220                           	
  1221  040F                     l4468:	
  1222                           ;uart.c: 16: TRISB |= 0x80;
  1223  040F  1786               	bsf	(134)^080h+(7/8),(7)&7	;volatile
  1224                           	line	17
  1225                           	
  1226  0410                     l4470:	
  1227                           ;uart.c: 17: ANS11 = 0;
  1228  0410  1283               	bcf	status, 5	;RP0=0, select bank2
  1229  0411  1703               	bsf	status, 6	;RP1=1, select bank2
  1230  0412  119F               	bcf	(2299/8)^0100h,(2299)&7
  1231                           	line	18
  1232                           	
  1233  0413                     l4472:	
  1234                           ;uart.c: 18: SPEN = 1;
  1235  0413  1283               	bcf	status, 5	;RP0=0, select bank0
  1236  0414  1303               	bcf	status, 6	;RP1=0, select bank0
  1237  0415  1798               	bsf	(199/8),(199)&7
  1238                           	line	19
  1239                           	
  1240  0416                     l4474:	
  1241                           ;uart.c: 19: TXEN = 1;
  1242  0416  1683               	bsf	status, 5	;RP0=1, select bank1
  1243  0417  1303               	bcf	status, 6	;RP1=0, select bank1
  1244  0418  1698               	bsf	(1221/8)^080h,(1221)&7
  1245                           	line	20
  1246                           	
  1247  0419                     l4476:	
  1248                           ;uart.c: 20: CREN = 1;
  1249  0419  1283               	bcf	status, 5	;RP0=0, select bank0
  1250  041A  1303               	bcf	status, 6	;RP1=0, select bank0
  1251  041B  1618               	bsf	(196/8),(196)&7
  1252                           	line	21
  1253                           	
  1254  041C                     l4478:	
  1255                           ;uart.c: 21: PORTB = 0x00;
  1256  041C  0186               	clrf	(6)	;volatile
  1257                           	line	22
  1258                           	
  1259  041D                     l1664:	
  1260  041D  0008               	return
  1261                           	opt stack 0
  1262                           GLOBAL	__end_of_uart_init
  1263  041E                     	__end_of_uart_init:
  1264 ;; =============== function _uart_init ends ============
  1265                           
  1266                           	signat	_uart_init,4216
  1267                           	global	_init
  1268                           psect	text479,local,class=CODE,delta=2
  1269                           global __ptext479
  1270  0450                     __ptext479:
  1271                           
  1272 ;; *************** function _init *****************
  1273 ;; Defined at:
  1274 ;;		line 138 in file "../main.c"
  1275 ;; Parameters:    Size  Location     Type
  1276 ;;		None
  1277 ;; Auto vars:     Size  Location     Type
  1278 ;;		None
  1279 ;; Return value:  Size  Location     Type
  1280 ;;		None               void
  1281 ;; Registers used:
  1282 ;;		wreg, status,2, status,0, pclath, cstack
  1283 ;; Tracked objects:
  1284 ;;		On entry : 0/0
  1285 ;;		On exit  : 0/0
  1286 ;;		Unchanged: 0/0
  1287 ;; Data sizes:     COMMON   BANK0   BANK1   BANK2
  1288 ;;      Params:         0       0       0       0
  1289 ;;      Locals:         0       0       0       0
  1290 ;;      Temps:          0       0       0       0
  1291 ;;      Totals:         0       0       0       0
  1292 ;;Total ram usage:        0 bytes
  1293 ;; Hardware stack levels used:    1
  1294 ;; Hardware stack levels required when called:    6
  1295 ;; This function calls:
  1296 ;;		__delay_ms
  1297 ;; This function is called by:
  1298 ;;		_main
  1299 ;; This function uses a non-reentrant model
  1300 ;;
  1301                           psect	text479
  1302                           	file	"../main.c"
  1303                           	line	138
  1304                           	global	__size_of_init
  1305  002F                     	__size_of_init	equ	__end_of_init-_init
  1306                           	
  1307  0450                     _init:	
  1308                           	opt	stack 1
  1309                           ; Regs used in _init: [wreg+status,2+status,0+pclath+cstack]
  1310                           	line	141
  1311                           	
  1312  0450                     l4428:	
  1313                           ;main.c: 141: OSCCON= 0x70;
  1314  0450  3070               	movlw	(070h)
  1315  0451  1683               	bsf	status, 5	;RP0=1, select bank1
  1316  0452  1303               	bcf	status, 6	;RP1=0, select bank1
  1317  0453  008F               	movwf	(143)^080h	;volatile
  1318                           	line	142
  1319                           ;main.c: 142: TRISA = 0b00010000;
  1320  0454  3010               	movlw	(010h)
  1321  0455  0085               	movwf	(133)^080h	;volatile
  1322                           	line	143
  1323                           	
  1324  0456                     l4430:	
  1325                           ;main.c: 143: TRISC = 0x00;
  1326  0456  0187               	clrf	(135)^080h	;volatile
  1327                           	line	144
  1328                           	
  1329  0457                     l4432:	
  1330                           ;main.c: 144: ANSEL = 0b00001000;
  1331  0457  3008               	movlw	(08h)
  1332  0458  1283               	bcf	status, 5	;RP0=0, select bank2
  1333  0459  1703               	bsf	status, 6	;RP1=1, select bank2
  1334  045A  009E               	movwf	(286)^0100h	;volatile
  1335                           	line	145
  1336                           ;main.c: 145: ANSELH = 0;
  1337  045B  019F               	clrf	(287)^0100h	;volatile
  1338                           	line	146
  1339                           	
  1340  045C                     l4434:	
  1341                           ;main.c: 146: PORTC = 0xFF;
  1342  045C  30FF               	movlw	(0FFh)
  1343  045D  1283               	bcf	status, 5	;RP0=0, select bank0
  1344  045E  1303               	bcf	status, 6	;RP1=0, select bank0
  1345  045F  0087               	movwf	(7)	;volatile
  1346                           	line	147
  1347                           	
  1348  0460                     l4436:	
  1349                           ;main.c: 147: _delay_ms(250);
  1350  0460  30FA               	movlw	low(0FAh)
  1351  0461  1683               	bsf	status, 5	;RP0=1, select bank1
  1352  0462  1303               	bcf	status, 6	;RP1=0, select bank1
  1353  0463  00B9               	movwf	(?__delay_ms)^080h
  1354  0464  3000               	movlw	high(0FAh)
  1355  0465  00BA               	movwf	((?__delay_ms)^080h)+1
  1356  0466  118A  24AB  118A   	fcall	__delay_ms
  1357                           	line	149
  1358                           	
  1359  0469                     l4438:	
  1360                           ;main.c: 149: ADCON0 = 0b10001100;
  1361  0469  308C               	movlw	(08Ch)
  1362  046A  1283               	bcf	status, 5	;RP0=0, select bank0
  1363  046B  1303               	bcf	status, 6	;RP1=0, select bank0
  1364  046C  009F               	movwf	(31)	;volatile
  1365                           	line	150
  1366                           	
  1367  046D                     l4440:	
  1368                           ;main.c: 150: ADCON1=0b00100000;
  1369  046D  3020               	movlw	(020h)
  1370  046E  1683               	bsf	status, 5	;RP0=1, select bank1
  1371  046F  1303               	bcf	status, 6	;RP1=0, select bank1
  1372  0470  009F               	movwf	(159)^080h	;volatile
  1373                           	line	151
  1374                           	
  1375  0471                     l4442:	
  1376                           ;main.c: 151: ADON=1;
  1377  0471  1283               	bcf	status, 5	;RP0=0, select bank0
  1378  0472  1303               	bcf	status, 6	;RP1=0, select bank0
  1379  0473  141F               	bsf	(248/8),(248)&7
  1380                           	line	152
  1381                           	
  1382  0474                     l4444:	
  1383                           ;main.c: 152: PORTC = 0x40;
  1384  0474  3040               	movlw	(040h)
  1385  0475  0087               	movwf	(7)	;volatile
  1386                           	line	153
  1387                           	
  1388  0476                     l4446:	
  1389                           ;main.c: 153: RA0 = 1;
  1390  0476  1405               	bsf	(40/8),(40)&7
  1391                           	line	158
  1392                           	
  1393  0477                     l4448:	
  1394                           ;main.c: 158: T1CON=0x31;
  1395  0477  3031               	movlw	(031h)
  1396  0478  0090               	movwf	(16)	;volatile
  1397                           	line	159
  1398                           	
  1399  0479                     l4450:	
  1400                           ;main.c: 159: TMR1IE=1;
  1401  0479  1683               	bsf	status, 5	;RP0=1, select bank1
  1402  047A  1303               	bcf	status, 6	;RP1=0, select bank1
  1403  047B  140C               	bsf	(1120/8)^080h,(1120)&7
  1404                           	line	160
  1405                           	
  1406  047C                     l4452:	
  1407                           ;main.c: 160: PEIE=1;
  1408  047C  170B               	bsf	(94/8),(94)&7
  1409                           	line	161
  1410                           	
  1411  047D                     l4454:	
  1412                           ;main.c: 161: GIE=1;
  1413  047D  178B               	bsf	(95/8),(95)&7
  1414                           	line	163
  1415                           	
  1416  047E                     l751:	
  1417  047E  0008               	return
  1418                           	opt stack 0
  1419                           GLOBAL	__end_of_init
  1420  047F                     	__end_of_init:
  1421 ;; =============== function _init ends ============
  1422                           
  1423                           	signat	_init,88
  1424                           	global	___aldiv
  1425                           psect	text480,local,class=CODE,delta=2
  1426                           global __ptext480
  1427  01B9                     __ptext480:
  1428                           
  1429 ;; *************** function ___aldiv *****************
  1430 ;; Defined at:
  1431 ;;		line 5 in file "/usr/hitech/picc/9.83/sources/aldiv.c"
  1432 ;; Parameters:    Size  Location     Type
  1433 ;;  divisor         4    0[BANK1 ] long 
  1434 ;;  dividend        4    4[BANK1 ] long 
  1435 ;; Auto vars:     Size  Location     Type
  1436 ;;  quotient        4   11[BANK1 ] long 
  1437 ;;  sign            1   10[BANK1 ] unsigned char 
  1438 ;;  counter         1    9[BANK1 ] unsigned char 
  1439 ;; Return value:  Size  Location     Type
  1440 ;;                  4    0[BANK1 ] long 
  1441 ;; Registers used:
  1442 ;;		wreg, status,2, status,0
  1443 ;; Tracked objects:
  1444 ;;		On entry : 0/0
  1445 ;;		On exit  : 0/0
  1446 ;;		Unchanged: 0/0
  1447 ;; Data sizes:     COMMON   BANK0   BANK1   BANK2
  1448 ;;      Params:         0       0       8       0
  1449 ;;      Locals:         0       0       6       0
  1450 ;;      Temps:          0       0       1       0
  1451 ;;      Totals:         0       0      15       0
  1452 ;;Total ram usage:       15 bytes
  1453 ;; Hardware stack levels used:    1
  1454 ;; Hardware stack levels required when called:    5
  1455 ;; This function calls:
  1456 ;;		Nothing
  1457 ;; This function is called by:
  1458 ;;		_uart_init
  1459 ;; This function uses a non-reentrant model
  1460 ;;
  1461                           psect	text480
  1462                           	file	"/usr/hitech/picc/9.83/sources/aldiv.c"
  1463                           	line	5
  1464                           	global	__size_of___aldiv
  1465  00A8                     	__size_of___aldiv	equ	__end_of___aldiv-___aldiv
  1466                           	
  1467  01B9                     ___aldiv:	
  1468                           	opt	stack 1
  1469                           ; Regs used in ___aldiv: [wreg+status,2+status,0]
  1470                           	line	9
  1471                           	
  1472  01B9                     l4364:	
  1473  01B9  1683               	bsf	status, 5	;RP0=1, select bank1
  1474  01BA  1303               	bcf	status, 6	;RP1=0, select bank1
  1475  01BB  01C3               	clrf	(___aldiv@sign)^080h
  1476                           	line	10
  1477  01BC  1FBC               	btfss	(___aldiv@divisor+3)^080h,7
  1478  01BD  29BF               	goto	u2941
  1479  01BE  29C0               	goto	u2940
  1480  01BF                     u2941:
  1481  01BF  29CF               	goto	l4370
  1482  01C0                     u2940:
  1483                           	line	11
  1484                           	
  1485  01C0                     l4366:	
  1486  01C0  09B9               	comf	(___aldiv@divisor)^080h,f
  1487  01C1  09BA               	comf	(___aldiv@divisor+1)^080h,f
  1488  01C2  09BB               	comf	(___aldiv@divisor+2)^080h,f
  1489  01C3  09BC               	comf	(___aldiv@divisor+3)^080h,f
  1490  01C4  0AB9               	incf	(___aldiv@divisor)^080h,f
  1491  01C5  1903               	skipnz
  1492  01C6  0ABA               	incf	(___aldiv@divisor+1)^080h,f
  1493  01C7  1903               	skipnz
  1494  01C8  0ABB               	incf	(___aldiv@divisor+2)^080h,f
  1495  01C9  1903               	skipnz
  1496  01CA  0ABC               	incf	(___aldiv@divisor+3)^080h,f
  1497                           	line	12
  1498                           	
  1499  01CB                     l4368:	
  1500  01CB  01C3               	clrf	(___aldiv@sign)^080h
  1501  01CC  1403               	bsf	status,0
  1502  01CD  0DC3               	rlf	(___aldiv@sign)^080h,f
  1503  01CE  29CF               	goto	l4370
  1504                           	line	13
  1505                           	
  1506  01CF                     l2769:	
  1507                           	line	14
  1508                           	
  1509  01CF                     l4370:	
  1510  01CF  1FC0               	btfss	(___aldiv@dividend+3)^080h,7
  1511  01D0  29D2               	goto	u2951
  1512  01D1  29D3               	goto	u2950
  1513  01D2                     u2951:
  1514  01D2  29E3               	goto	l4376
  1515  01D3                     u2950:
  1516                           	line	15
  1517                           	
  1518  01D3                     l4372:	
  1519  01D3  09BD               	comf	(___aldiv@dividend)^080h,f
  1520  01D4  09BE               	comf	(___aldiv@dividend+1)^080h,f
  1521  01D5  09BF               	comf	(___aldiv@dividend+2)^080h,f
  1522  01D6  09C0               	comf	(___aldiv@dividend+3)^080h,f
  1523  01D7  0ABD               	incf	(___aldiv@dividend)^080h,f
  1524  01D8  1903               	skipnz
  1525  01D9  0ABE               	incf	(___aldiv@dividend+1)^080h,f
  1526  01DA  1903               	skipnz
  1527  01DB  0ABF               	incf	(___aldiv@dividend+2)^080h,f
  1528  01DC  1903               	skipnz
  1529  01DD  0AC0               	incf	(___aldiv@dividend+3)^080h,f
  1530                           	line	16
  1531                           	
  1532  01DE                     l4374:	
  1533  01DE  3001               	movlw	(01h)
  1534  01DF  00C1               	movwf	(??___aldiv+0)^080h+0
  1535  01E0  0841               	movf	(??___aldiv+0)^080h+0,w
  1536  01E1  06C3               	xorwf	(___aldiv@sign)^080h,f
  1537  01E2  29E3               	goto	l4376
  1538                           	line	17
  1539                           	
  1540  01E3                     l2770:	
  1541                           	line	18
  1542                           	
  1543  01E3                     l4376:	
  1544  01E3  3000               	movlw	0
  1545  01E4  00C7               	movwf	(___aldiv@quotient+3)^080h
  1546  01E5  3000               	movlw	0
  1547  01E6  00C6               	movwf	(___aldiv@quotient+2)^080h
  1548  01E7  3000               	movlw	0
  1549  01E8  00C5               	movwf	(___aldiv@quotient+1)^080h
  1550  01E9  3000               	movlw	0
  1551  01EA  00C4               	movwf	(___aldiv@quotient)^080h
  1552                           
  1553                           	line	19
  1554                           	
  1555  01EB                     l4378:	
  1556  01EB  083C               	movf	(___aldiv@divisor+3)^080h,w
  1557  01EC  043B               	iorwf	(___aldiv@divisor+2)^080h,w
  1558  01ED  043A               	iorwf	(___aldiv@divisor+1)^080h,w
  1559  01EE  0439               	iorwf	(___aldiv@divisor)^080h,w
  1560  01EF  1903               	skipnz
  1561  01F0  29F2               	goto	u2961
  1562  01F1  29F3               	goto	u2960
  1563  01F2                     u2961:
  1564  01F2  2A47               	goto	l4398
  1565  01F3                     u2960:
  1566                           	line	20
  1567                           	
  1568  01F3                     l4380:	
  1569  01F3  01C2               	clrf	(___aldiv@counter)^080h
  1570  01F4  1403               	bsf	status,0
  1571  01F5  0DC2               	rlf	(___aldiv@counter)^080h,f
  1572                           	line	21
  1573  01F6  2A05               	goto	l4384
  1574                           	
  1575  01F7                     l2773:	
  1576                           	line	22
  1577                           	
  1578  01F7                     l4382:	
  1579  01F7  3001               	movlw	01h
  1580  01F8  00C1               	movwf	(??___aldiv+0)^080h+0
  1581  01F9                     u2975:
  1582  01F9  1003               	clrc
  1583  01FA  0DB9               	rlf	(___aldiv@divisor)^080h,f
  1584  01FB  0DBA               	rlf	(___aldiv@divisor+1)^080h,f
  1585  01FC  0DBB               	rlf	(___aldiv@divisor+2)^080h,f
  1586  01FD  0DBC               	rlf	(___aldiv@divisor+3)^080h,f
  1587  01FE  0BC1               	decfsz	(??___aldiv+0)^080h+0
  1588  01FF  29F9               	goto	u2975
  1589                           	line	23
  1590  0200  3001               	movlw	(01h)
  1591  0201  00C1               	movwf	(??___aldiv+0)^080h+0
  1592  0202  0841               	movf	(??___aldiv+0)^080h+0,w
  1593  0203  07C2               	addwf	(___aldiv@counter)^080h,f
  1594  0204  2A05               	goto	l4384
  1595                           	line	24
  1596                           	
  1597  0205                     l2772:	
  1598                           	line	21
  1599                           	
  1600  0205                     l4384:	
  1601  0205  1FBC               	btfss	(___aldiv@divisor+3)^080h,(31)&7
  1602  0206  2A08               	goto	u2981
  1603  0207  2A09               	goto	u2980
  1604  0208                     u2981:
  1605  0208  29F7               	goto	l4382
  1606  0209                     u2980:
  1607  0209  2A0B               	goto	l4386
  1608                           	
  1609  020A                     l2774:	
  1610  020A  2A0B               	goto	l4386
  1611                           	line	25
  1612                           	
  1613  020B                     l2775:	
  1614                           	line	26
  1615                           	
  1616  020B                     l4386:	
  1617  020B  3001               	movlw	01h
  1618  020C  00C1               	movwf	(??___aldiv+0)^080h+0
  1619  020D                     u2995:
  1620  020D  1003               	clrc
  1621  020E  0DC4               	rlf	(___aldiv@quotient)^080h,f
  1622  020F  0DC5               	rlf	(___aldiv@quotient+1)^080h,f
  1623  0210  0DC6               	rlf	(___aldiv@quotient+2)^080h,f
  1624  0211  0DC7               	rlf	(___aldiv@quotient+3)^080h,f
  1625  0212  0BC1               	decfsz	(??___aldiv+0)^080h+0
  1626  0213  2A0D               	goto	u2995
  1627                           	line	27
  1628                           	
  1629  0214                     l4388:	
  1630  0214  083C               	movf	(___aldiv@divisor+3)^080h,w
  1631  0215  0240               	subwf	(___aldiv@dividend+3)^080h,w
  1632  0216  1D03               	skipz
  1633  0217  2A22               	goto	u3005
  1634  0218  083B               	movf	(___aldiv@divisor+2)^080h,w
  1635  0219  023F               	subwf	(___aldiv@dividend+2)^080h,w
  1636  021A  1D03               	skipz
  1637  021B  2A22               	goto	u3005
  1638  021C  083A               	movf	(___aldiv@divisor+1)^080h,w
  1639  021D  023E               	subwf	(___aldiv@dividend+1)^080h,w
  1640  021E  1D03               	skipz
  1641  021F  2A22               	goto	u3005
  1642  0220  0839               	movf	(___aldiv@divisor)^080h,w
  1643  0221  023D               	subwf	(___aldiv@dividend)^080h,w
  1644  0222                     u3005:
  1645  0222  1C03               	skipc
  1646  0223  2A25               	goto	u3001
  1647  0224  2A26               	goto	u3000
  1648  0225                     u3001:
  1649  0225  2A36               	goto	l4394
  1650  0226                     u3000:
  1651                           	line	28
  1652                           	
  1653  0226                     l4390:	
  1654  0226  0839               	movf	(___aldiv@divisor)^080h,w
  1655  0227  02BD               	subwf	(___aldiv@dividend)^080h,f
  1656  0228  083A               	movf	(___aldiv@divisor+1)^080h,w
  1657  0229  1C03               	skipc
  1658  022A  0F3A               	incfsz	(___aldiv@divisor+1)^080h,w
  1659  022B  02BE               	subwf	(___aldiv@dividend+1)^080h,f
  1660  022C  083B               	movf	(___aldiv@divisor+2)^080h,w
  1661  022D  1C03               	skipc
  1662  022E  0F3B               	incfsz	(___aldiv@divisor+2)^080h,w
  1663  022F  02BF               	subwf	(___aldiv@dividend+2)^080h,f
  1664  0230  083C               	movf	(___aldiv@divisor+3)^080h,w
  1665  0231  1C03               	skipc
  1666  0232  0F3C               	incfsz	(___aldiv@divisor+3)^080h,w
  1667  0233  02C0               	subwf	(___aldiv@dividend+3)^080h,f
  1668                           	line	29
  1669                           	
  1670  0234                     l4392:	
  1671  0234  1444               	bsf	(___aldiv@quotient)^080h+(0/8),(0)&7
  1672  0235  2A36               	goto	l4394
  1673                           	line	30
  1674                           	
  1675  0236                     l2776:	
  1676                           	line	31
  1677                           	
  1678  0236                     l4394:	
  1679  0236  3001               	movlw	01h
  1680  0237                     u3015:
  1681  0237  1003               	clrc
  1682  0238  0CBC               	rrf	(___aldiv@divisor+3)^080h,f
  1683  0239  0CBB               	rrf	(___aldiv@divisor+2)^080h,f
  1684  023A  0CBA               	rrf	(___aldiv@divisor+1)^080h,f
  1685  023B  0CB9               	rrf	(___aldiv@divisor)^080h,f
  1686  023C  3EFF               	addlw	-1
  1687  023D  1D03               	skipz
  1688  023E  2A37               	goto	u3015
  1689                           
  1690                           	line	32
  1691                           	
  1692  023F                     l4396:	
  1693  023F  3001               	movlw	low(01h)
  1694  0240  02C2               	subwf	(___aldiv@counter)^080h,f
  1695  0241  1D03               	btfss	status,2
  1696  0242  2A44               	goto	u3021
  1697  0243  2A45               	goto	u3020
  1698  0244                     u3021:
  1699  0244  2A0B               	goto	l4386
  1700  0245                     u3020:
  1701  0245  2A47               	goto	l4398
  1702                           	
  1703  0246                     l2777:	
  1704  0246  2A47               	goto	l4398
  1705                           	line	33
  1706                           	
  1707  0247                     l2771:	
  1708                           	line	34
  1709                           	
  1710  0247                     l4398:	
  1711  0247  0843               	movf	(___aldiv@sign)^080h,w
  1712  0248  1D03               	skipz
  1713  0249  2A4B               	goto	u3030
  1714  024A  2A57               	goto	l4402
  1715  024B                     u3030:
  1716                           	line	35
  1717                           	
  1718  024B                     l4400:	
  1719  024B  09C4               	comf	(___aldiv@quotient)^080h,f
  1720  024C  09C5               	comf	(___aldiv@quotient+1)^080h,f
  1721  024D  09C6               	comf	(___aldiv@quotient+2)^080h,f
  1722  024E  09C7               	comf	(___aldiv@quotient+3)^080h,f
  1723  024F  0AC4               	incf	(___aldiv@quotient)^080h,f
  1724  0250  1903               	skipnz
  1725  0251  0AC5               	incf	(___aldiv@quotient+1)^080h,f
  1726  0252  1903               	skipnz
  1727  0253  0AC6               	incf	(___aldiv@quotient+2)^080h,f
  1728  0254  1903               	skipnz
  1729  0255  0AC7               	incf	(___aldiv@quotient+3)^080h,f
  1730  0256  2A57               	goto	l4402
  1731                           	
  1732  0257                     l2778:	
  1733                           	line	36
  1734                           	
  1735  0257                     l4402:	
  1736  0257  0847               	movf	(___aldiv@quotient+3)^080h,w
  1737  0258  00BC               	movwf	(?___aldiv+3)^080h
  1738  0259  0846               	movf	(___aldiv@quotient+2)^080h,w
  1739  025A  00BB               	movwf	(?___aldiv+2)^080h
  1740  025B  0845               	movf	(___aldiv@quotient+1)^080h,w
  1741  025C  00BA               	movwf	(?___aldiv+1)^080h
  1742  025D  0844               	movf	(___aldiv@quotient)^080h,w
  1743  025E  00B9               	movwf	(?___aldiv)^080h
  1744                           
  1745  025F  2A60               	goto	l2779
  1746                           	
  1747  0260                     l4404:	
  1748                           	line	37
  1749                           	
  1750  0260                     l2779:	
  1751  0260  0008               	return
  1752                           	opt stack 0
  1753                           GLOBAL	__end_of___aldiv
  1754  0261                     	__end_of___aldiv:
  1755 ;; =============== function ___aldiv ends ============
  1756                           
  1757                           	signat	___aldiv,8316
  1758                           	global	__delay_ms
  1759                           psect	text481,local,class=CODE,delta=2
  1760                           global __ptext481
  1761  04AB                     __ptext481:
  1762                           
  1763 ;; *************** function __delay_ms *****************
  1764 ;; Defined at:
  1765 ;;		line 165 in file "../main.c"
  1766 ;; Parameters:    Size  Location     Type
  1767 ;;  ms              2    0[BANK1 ] unsigned int 
  1768 ;; Auto vars:     Size  Location     Type
  1769 ;;  us              1    4[BANK1 ] unsigned char 
  1770 ;;  i               1    3[BANK1 ] unsigned char 
  1771 ;; Return value:  Size  Location     Type
  1772 ;;		None               void
  1773 ;; Registers used:
  1774 ;;		wreg, status,2, status,0
  1775 ;; Tracked objects:
  1776 ;;		On entry : 0/0
  1777 ;;		On exit  : 0/0
  1778 ;;		Unchanged: 0/0
  1779 ;; Data sizes:     COMMON   BANK0   BANK1   BANK2
  1780 ;;      Params:         0       0       2       0
  1781 ;;      Locals:         0       0       2       0
  1782 ;;      Temps:          0       0       1       0
  1783 ;;      Totals:         0       0       5       0
  1784 ;;Total ram usage:        5 bytes
  1785 ;; Hardware stack levels used:    1
  1786 ;; Hardware stack levels required when called:    5
  1787 ;; This function calls:
  1788 ;;		Nothing
  1789 ;; This function is called by:
  1790 ;;		_init
  1791 ;; This function uses a non-reentrant model
  1792 ;;
  1793                           psect	text481
  1794                           	file	"../main.c"
  1795                           	line	165
  1796                           	global	__size_of__delay_ms
  1797  0028                     	__size_of__delay_ms	equ	__end_of__delay_ms-__delay_ms
  1798                           	
  1799  04AB                     __delay_ms:	
  1800                           	opt	stack 1
  1801                           ; Regs used in __delay_ms: [wreg+status,2+status,0]
  1802                           	line	167
  1803                           ;main.c: 166: unsigned char i;
  1804                           ;main.c: 167: do {
  1805                           	
  1806  04AB                     l754:	
  1807                           	line	168
  1808                           	
  1809  04AB                     l4236:	
  1810                           ;main.c: 168: i = 4;
  1811  04AB  3004               	movlw	(04h)
  1812  04AC  1683               	bsf	status, 5	;RP0=1, select bank1
  1813  04AD  1303               	bcf	status, 6	;RP1=0, select bank1
  1814  04AE  00BB               	movwf	(??__delay_ms+0)^080h+0
  1815  04AF  083B               	movf	(??__delay_ms+0)^080h+0,w
  1816  04B0  00BC               	movwf	(__delay_ms@i)^080h
  1817                           	line	169
  1818                           ;main.c: 169: do {
  1819                           	
  1820  04B1                     l755:	
  1821                           	line	170
  1822                           ;main.c: 170: { unsigned char us; us = (164)/(12000000/8000000L)|1; while(--us != 0) con
                                 tinue; };
  1823  04B1  30A5               	movlw	(0A5h)
  1824  04B2  00BB               	movwf	(??__delay_ms+0)^080h+0
  1825  04B3  083B               	movf	(??__delay_ms+0)^080h+0,w
  1826  04B4  00BD               	movwf	(__delay_ms@us)^080h
  1827  04B5  2CB7               	goto	l4238
  1828                           	
  1829  04B6                     l757:	
  1830  04B6  2CB7               	goto	l4238
  1831                           	
  1832  04B7                     l756:	
  1833                           	
  1834  04B7                     l4238:	
  1835  04B7  3001               	movlw	low(01h)
  1836  04B8  02BD               	subwf	(__delay_ms@us)^080h,f
  1837  04B9  1D03               	btfss	status,2
  1838  04BA  2CBC               	goto	u2681
  1839  04BB  2CBD               	goto	u2680
  1840  04BC                     u2681:
  1841  04BC  2CB7               	goto	l4238
  1842  04BD                     u2680:
  1843  04BD  2CBE               	goto	l4240
  1844                           	
  1845  04BE                     l758:	
  1846                           	line	171
  1847                           	
  1848  04BE                     l4240:	
  1849                           ;main.c: 171: } while(--i);
  1850  04BE  3001               	movlw	low(01h)
  1851  04BF  02BC               	subwf	(__delay_ms@i)^080h,f
  1852  04C0  1D03               	btfss	status,2
  1853  04C1  2CC3               	goto	u2691
  1854  04C2  2CC4               	goto	u2690
  1855  04C3                     u2691:
  1856  04C3  2CB1               	goto	l755
  1857  04C4                     u2690:
  1858  04C4  2CC5               	goto	l4242
  1859                           	
  1860  04C5                     l759:	
  1861                           	line	172
  1862                           	
  1863  04C5                     l4242:	
  1864                           ;main.c: 172: } while(--ms);
  1865  04C5  3001               	movlw	low(01h)
  1866  04C6  02B9               	subwf	(__delay_ms@ms)^080h,f
  1867  04C7  3000               	movlw	high(01h)
  1868  04C8  1C03               	skipc
  1869  04C9  03BA               	decf	(__delay_ms@ms+1)^080h,f
  1870  04CA  02BA               	subwf	(__delay_ms@ms+1)^080h,f
  1871  04CB  083A               	movf	(((__delay_ms@ms+1)^080h)),w
  1872  04CC  0439               	iorwf	(((__delay_ms@ms)^080h)),w
  1873  04CD  1D03               	skipz
  1874  04CE  2CD0               	goto	u2701
  1875  04CF  2CD1               	goto	u2700
  1876  04D0                     u2701:
  1877  04D0  2CAB               	goto	l754
  1878  04D1                     u2700:
  1879  04D1  2CD2               	goto	l761
  1880                           	
  1881  04D2                     l760:	
  1882                           	line	173
  1883                           	
  1884  04D2                     l761:	
  1885  04D2  0008               	return
  1886                           	opt stack 0
  1887                           GLOBAL	__end_of__delay_ms
  1888  04D3                     	__end_of__delay_ms:
  1889 ;; =============== function __delay_ms ends ============
  1890                           
  1891                           	signat	__delay_ms,4216
  1892                           	global	_uart_interrupts
  1893                           psect	text482,local,class=CODE,delta=2
  1894                           global __ptext482
  1895  059D                     __ptext482:
  1896                           
  1897 ;; *************** function _uart_interrupts *****************
  1898 ;; Defined at:
  1899 ;;		line 24 in file "../uart.c"
  1900 ;; Parameters:    Size  Location     Type
  1901 ;;		None
  1902 ;; Auto vars:     Size  Location     Type
  1903 ;;		None
  1904 ;; Return value:  Size  Location     Type
  1905 ;;		None               void
  1906 ;; Registers used:
  1907 ;;		None
  1908 ;; Tracked objects:
  1909 ;;		On entry : 0/0
  1910 ;;		On exit  : 0/0
  1911 ;;		Unchanged: 0/0
  1912 ;; Data sizes:     COMMON   BANK0   BANK1   BANK2
  1913 ;;      Params:         0       0       0       0
  1914 ;;      Locals:         0       0       0       0
  1915 ;;      Temps:          0       0       0       0
  1916 ;;      Totals:         0       0       0       0
  1917 ;;Total ram usage:        0 bytes
  1918 ;; Hardware stack levels used:    1
  1919 ;; Hardware stack levels required when called:    5
  1920 ;; This function calls:
  1921 ;;		Nothing
  1922 ;; This function is called by:
  1923 ;;		_main
  1924 ;; This function uses a non-reentrant model
  1925 ;;
  1926                           psect	text482
  1927                           	file	"../uart.c"
  1928                           	line	24
  1929                           	global	__size_of_uart_interrupts
  1930  0005                     	__size_of_uart_interrupts	equ	__end_of_uart_interrupts-_uart_interrupts
  1931                           	
  1932  059D                     _uart_interrupts:	
  1933                           	opt	stack 2
  1934                           ; Regs used in _uart_interrupts: []
  1935                           	line	25
  1936                           	
  1937  059D                     l4234:	
  1938                           ;uart.c: 25: RCIE = 1;
  1939  059D  1683               	bsf	status, 5	;RP0=1, select bank1
  1940  059E  1303               	bcf	status, 6	;RP1=0, select bank1
  1941  059F  168C               	bsf	(1125/8)^080h,(1125)&7
  1942                           	line	26
  1943                           ;uart.c: 26: PEIE = 1;
  1944  05A0  170B               	bsf	(94/8),(94)&7
  1945                           	line	27
  1946                           	
  1947  05A1                     l1667:	
  1948  05A1  0008               	return
  1949                           	opt stack 0
  1950                           GLOBAL	__end_of_uart_interrupts
  1951  05A2                     	__end_of_uart_interrupts:
  1952 ;; =============== function _uart_interrupts ends ============
  1953                           
  1954                           	signat	_uart_interrupts,88
  1955                           	global	_put_c
  1956                           psect	text483,local,class=CODE,delta=2
  1957                           global __ptext483
  1958  056C                     __ptext483:
  1959                           
  1960 ;; *************** function _put_c *****************
  1961 ;; Defined at:
  1962 ;;		line 38 in file "../uart.c"
  1963 ;; Parameters:    Size  Location     Type
  1964 ;;  c               1    wreg     unsigned char 
  1965 ;; Auto vars:     Size  Location     Type
  1966 ;;  c               1    0[BANK1 ] unsigned char 
  1967 ;; Return value:  Size  Location     Type
  1968 ;;		None               void
  1969 ;; Registers used:
  1970 ;;		wreg
  1971 ;; Tracked objects:
  1972 ;;		On entry : 0/0
  1973 ;;		On exit  : 0/0
  1974 ;;		Unchanged: 0/0
  1975 ;; Data sizes:     COMMON   BANK0   BANK1   BANK2
  1976 ;;      Params:         0       0       0       0
  1977 ;;      Locals:         0       0       1       0
  1978 ;;      Temps:          0       0       0       0
  1979 ;;      Totals:         0       0       1       0
  1980 ;;Total ram usage:        1 bytes
  1981 ;; Hardware stack levels used:    1
  1982 ;; Hardware stack levels required when called:    5
  1983 ;; This function calls:
  1984 ;;		Nothing
  1985 ;; This function is called by:
  1986 ;;		_putstring
  1987 ;; This function uses a non-reentrant model
  1988 ;;
  1989                           psect	text483
  1990                           	file	"../uart.c"
  1991                           	line	38
  1992                           	global	__size_of_put_c
  1993  0011                     	__size_of_put_c	equ	__end_of_put_c-_put_c
  1994                           	
  1995  056C                     _put_c:	
  1996                           	opt	stack 0
  1997                           ; Regs used in _put_c: [wreg]
  1998                           ;put_c@c stored from wreg
  1999  056C  1683               	bsf	status, 5	;RP0=1, select bank1
  2000  056D  1303               	bcf	status, 6	;RP1=0, select bank1
  2001  056E  00B9               	movwf	(put_c@c)^080h
  2002                           	line	39
  2003                           	
  2004  056F                     l4230:	
  2005                           ;uart.c: 39: while(!TXIF);
  2006  056F  2D70               	goto	l1676
  2007                           	
  2008  0570                     l1677:	
  2009                           	
  2010  0570                     l1676:	
  2011  0570  1283               	bcf	status, 5	;RP0=0, select bank0
  2012  0571  1E0C               	btfss	(100/8),(100)&7
  2013  0572  2D74               	goto	u2671
  2014  0573  2D75               	goto	u2670
  2015  0574                     u2671:
  2016  0574  2D70               	goto	l1676
  2017  0575                     u2670:
  2018  0575  2D76               	goto	l4232
  2019                           	
  2020  0576                     l1678:	
  2021                           	line	40
  2022                           	
  2023  0576                     l4232:	
  2024                           ;uart.c: 40: TXREG = c;
  2025  0576  1683               	bsf	status, 5	;RP0=1, select bank1
  2026  0577  1303               	bcf	status, 6	;RP1=0, select bank1
  2027  0578  0839               	movf	(put_c@c)^080h,w
  2028  0579  1283               	bcf	status, 5	;RP0=0, select bank0
  2029  057A  1303               	bcf	status, 6	;RP1=0, select bank0
  2030  057B  0099               	movwf	(25)	;volatile
  2031                           	line	41
  2032                           	
  2033  057C                     l1679:	
  2034  057C  0008               	return
  2035                           	opt stack 0
  2036                           GLOBAL	__end_of_put_c
  2037  057D                     	__end_of_put_c:
  2038 ;; =============== function _put_c ends ============
  2039                           
  2040                           	signat	_put_c,4216
  2041                           	global	_isr
  2042                           psect	text484,local,class=CODE,delta=2
  2043                           global __ptext484
  2044  0101                     __ptext484:
  2045                           
  2046 ;; *************** function _isr *****************
  2047 ;; Defined at:
  2048 ;;		line 78 in file "../main.c"
  2049 ;; Parameters:    Size  Location     Type
  2050 ;;		None
  2051 ;; Auto vars:     Size  Location     Type
  2052 ;;  input          25   37[BANK0 ] unsigned char [25]
  2053 ;;  input_counte    2   63[BANK0 ] int 
  2054 ;;  retval          1   62[BANK0 ] unsigned char 
  2055 ;; Return value:  Size  Location     Type
  2056 ;;		None               void
  2057 ;; Registers used:
  2058 ;;		wreg, fsr0l, fsr0h, fsr1l, fsr1h, status,2, status,0, btemp+1, pclath, cstack
  2059 ;; Tracked objects:
  2060 ;;		On entry : 0/0
  2061 ;;		On exit  : 0/0
  2062 ;;		Unchanged: 0/0
  2063 ;; Data sizes:     COMMON   BANK0   BANK1   BANK2
  2064 ;;      Params:         0       0       0       0
  2065 ;;      Locals:         0      28       0       0
  2066 ;;      Temps:          0       8       0       0
  2067 ;;      Totals:         0      36       0       0
  2068 ;;Total ram usage:       36 bytes
  2069 ;; Hardware stack levels used:    1
  2070 ;; Hardware stack levels required when called:    4
  2071 ;; This function calls:
  2072 ;;		_readADC
  2073 ;;		_getc_spdswtch
  2074 ;;		i1_put_c
  2075 ;; This function is called by:
  2076 ;;		Interrupt level 1
  2077 ;; This function uses a non-reentrant model
  2078 ;;
  2079                           psect	text484
  2080                           	file	"../main.c"
  2081                           	line	78
  2082                           	global	__size_of_isr
  2083  00B8                     	__size_of_isr	equ	__end_of_isr-_isr
  2084                           	
  2085  0101                     _isr:	
  2086                           	opt	stack 0
  2087                           ; Regs used in _isr: [allreg]
  2088                           psect	intentry,class=CODE,delta=2
  2089                           global __pintentry
  2090  0004                     __pintentry:
  2091                           global interrupt_function
  2092  0004                     interrupt_function:
  2093                           	global saved_w
  2094  007E                     	saved_w	set	btemp+0
  2095  0004  00FE               	movwf	saved_w
  2096  0005  0E03               	swapf	status,w
  2097  0006  1283               	bcf	status, 5	;RP0=0, select bank0
  2098  0007  1303               	bcf	status, 6	;RP1=0, select bank0
  2099  0008  00C1               	movwf	(??_isr+4)
  2100  0009  0804               	movf	fsr0,w
  2101  000A  00C2               	movwf	(??_isr+5)
  2102  000B  080A               	movf	pclath,w
  2103  000C  00C3               	movwf	(??_isr+6)
  2104  000D  087F               	movf	btemp+1,w
  2105  000E  00C4               	movwf	(??_isr+7)
  2106  000F  118A  2901         	ljmp	_isr
  2107                           psect	text484
  2108                           	line	79
  2109                           	
  2110  0101                     i1l4142:	
  2111                           ;main.c: 79: if(TMR1IE && TMR1IF){
  2112  0101  1683               	bsf	status, 5	;RP0=1, select bank1
  2113  0102  1303               	bcf	status, 6	;RP1=0, select bank1
  2114  0103  1C0C               	btfss	(1120/8)^080h,(1120)&7
  2115  0104  2906               	goto	u257_21
  2116  0105  2907               	goto	u257_20
  2117  0106                     u257_21:
  2118  0106  293C               	goto	i1l4166
  2119  0107                     u257_20:
  2120                           	
  2121  0107                     i1l4144:	
  2122  0107  1283               	bcf	status, 5	;RP0=0, select bank0
  2123  0108  1303               	bcf	status, 6	;RP1=0, select bank0
  2124  0109  1C0C               	btfss	(96/8),(96)&7
  2125  010A  290C               	goto	u258_21
  2126  010B  290D               	goto	u258_20
  2127  010C                     u258_21:
  2128  010C  293C               	goto	i1l4166
  2129  010D                     u258_20:
  2130                           	line	81
  2131                           	
  2132  010D                     i1l4146:	
  2133                           ;main.c: 81: if(counter == 2){
  2134  010D  3002               	movlw	02h
  2135  010E  0661               	xorwf	(_counter),w
  2136  010F  0462               	iorwf	(_counter+1),w
  2137  0110  1D03               	skipz
  2138  0111  2913               	goto	u259_21
  2139  0112  2914               	goto	u259_20
  2140  0113                     u259_21:
  2141  0113  291E               	goto	i1l4156
  2142  0114                     u259_20:
  2143                           	line	82
  2144                           	
  2145  0114                     i1l4148:	
  2146                           ;main.c: 82: GIE=0;
  2147  0114  138B               	bcf	(95/8),(95)&7
  2148                           	line	84
  2149                           	
  2150  0115                     i1l4150:	
  2151                           ;main.c: 84: readADC();
  2152  0115  118A  2261  118A   	fcall	_readADC
  2153                           	line	85
  2154                           	
  2155  0118                     i1l4152:	
  2156                           ;main.c: 85: counter = 0;
  2157  0118  1283               	bcf	status, 5	;RP0=0, select bank0
  2158  0119  1303               	bcf	status, 6	;RP1=0, select bank0
  2159  011A  01E1               	clrf	(_counter)
  2160  011B  01E2               	clrf	(_counter+1)
  2161                           	line	87
  2162                           	
  2163  011C                     i1l4154:	
  2164                           ;main.c: 87: GIE=1;
  2165  011C  178B               	bsf	(95/8),(95)&7
  2166  011D  291E               	goto	i1l4156
  2167                           	line	88
  2168                           	
  2169  011E                     i1l734:	
  2170                           	line	90
  2171                           	
  2172  011E                     i1l4156:	
  2173                           ;main.c: 88: }
  2174                           ;main.c: 90: TMR1IF=0;
  2175  011E  100C               	bcf	(96/8),(96)&7
  2176                           	line	93
  2177                           	
  2178  011F                     i1l4158:	
  2179                           ;main.c: 93: PORTC ^= (0x05 << 4);
  2180  011F  3050               	movlw	(050h)
  2181  0120  00BD               	movwf	(??_isr+0)+0
  2182  0121  083D               	movf	(??_isr+0)+0,w
  2183  0122  0687               	xorwf	(7),f	;volatile
  2184                           	line	94
  2185                           	
  2186  0123                     i1l4160:	
  2187                           ;main.c: 94: counter++;
  2188  0123  3001               	movlw	low(01h)
  2189  0124  07E1               	addwf	(_counter),f
  2190  0125  1803               	skipnc
  2191  0126  0AE2               	incf	(_counter+1),f
  2192  0127  3000               	movlw	high(01h)
  2193  0128  07E2               	addwf	(_counter+1),f
  2194                           	line	95
  2195                           	
  2196  0129                     i1l4162:	
  2197                           ;main.c: 95: if(counter > 2){
  2198  0129  0862               	movf	(_counter+1),w
  2199  012A  3A80               	xorlw	80h
  2200  012B  00FF               	movwf	btemp+1
  2201  012C  3080               	movlw	(high(03h))^80h
  2202  012D  027F               	subwf	btemp+1,w
  2203  012E  1D03               	skipz
  2204  012F  2932               	goto	u260_25
  2205  0130  3003               	movlw	low(03h)
  2206  0131  0261               	subwf	(_counter),w
  2207  0132                     u260_25:
  2208                           
  2209  0132  1C03               	skipc
  2210  0133  2935               	goto	u260_21
  2211  0134  2936               	goto	u260_20
  2212  0135                     u260_21:
  2213  0135  293C               	goto	i1l4166
  2214  0136                     u260_20:
  2215                           	line	96
  2216                           	
  2217  0136                     i1l4164:	
  2218                           ;main.c: 96: counter = 0;
  2219  0136  1283               	bcf	status, 5	;RP0=0, select bank0
  2220  0137  1303               	bcf	status, 6	;RP1=0, select bank0
  2221  0138  01E1               	clrf	(_counter)
  2222  0139  01E2               	clrf	(_counter+1)
  2223  013A  293C               	goto	i1l4166
  2224                           	line	97
  2225                           	
  2226  013B                     i1l735:	
  2227  013B  293C               	goto	i1l4166
  2228                           	line	98
  2229                           	
  2230  013C                     i1l733:	
  2231                           	line	100
  2232                           	
  2233  013C                     i1l4166:	
  2234                           ;main.c: 97: }
  2235                           ;main.c: 98: }
  2236                           ;main.c: 100: if(RCIF){
  2237  013C  1283               	bcf	status, 5	;RP0=0, select bank0
  2238  013D  1303               	bcf	status, 6	;RP1=0, select bank0
  2239  013E  1E8C               	btfss	(101/8),(101)&7
  2240  013F  2941               	goto	u261_21
  2241  0140  2942               	goto	u261_20
  2242  0141                     u261_21:
  2243  0141  29AC               	goto	i1l743
  2244  0142                     u261_20:
  2245                           	line	101
  2246                           	
  2247  0142                     i1l4168:	
  2248                           ;main.c: 101: GIE=0;
  2249  0142  138B               	bcf	(95/8),(95)&7
  2250                           	line	102
  2251                           	
  2252  0143                     i1l4170:	
  2253                           ;main.c: 102: char retval = '0';
  2254  0143  3030               	movlw	(030h)
  2255  0144  00BD               	movwf	(??_isr+0)+0
  2256  0145  083D               	movf	(??_isr+0)+0,w
  2257  0146  00DE               	movwf	(isr@retval)
  2258                           	line	103
  2259                           	
  2260  0147                     i1l4172:	
  2261                           ;main.c: 103: char input[25] = {'0'};
  2262  0147  3045               	movlw	(isr@input)&0ffh
  2263  0148  0084               	movwf	fsr0
  2264  0149  30A0               	movlw	low(isr@F746)
  2265  014A  00BD               	movwf	(??_isr+0)+0
  2266  014B  0804               	movf	fsr0,w
  2267  014C  00BE               	movwf	((??_isr+0)+0+1)
  2268  014D  3019               	movlw	25
  2269  014E  00BF               	movwf	((??_isr+0)+0+2)
  2270  014F                     u262_20:
  2271  014F  083D               	movf	(??_isr+0)+0,w
  2272  0150  0084               	movwf	fsr0
  2273  0151  1383               	bcf	status, 7	;select IRP bank1
  2274                           	
  2275  0152  0800               	movf	indf,w
  2276  0153  00C0               	movwf	((??_isr+0)+0+3)
  2277  0154  0ABD               	incf	(??_isr+0)+0,f
  2278  0155  083E               	movf	((??_isr+0)+0+1),w
  2279  0156  0084               	movwf	fsr0
  2280                           	
  2281  0157  0840               	movf	((??_isr+0)+0+3),w
  2282  0158  0080               	movwf	indf
  2283  0159  0ABE               	incf	((??_isr+0)+0+1),f
  2284  015A  0BBF               	decfsz	((??_isr+0)+0+2),f
  2285  015B  294F               	goto	u262_20
  2286                           	line	104
  2287                           	
  2288  015C                     i1l4174:	
  2289                           ;main.c: 104: int input_counter = 0;
  2290  015C  01DF               	clrf	(isr@input_counter)
  2291  015D  01E0               	clrf	(isr@input_counter+1)
  2292                           	line	105
  2293                           ;main.c: 105: while(retval != 0x0D){
  2294  015E  299F               	goto	i1l4196
  2295                           	
  2296  015F                     i1l740:	
  2297                           	line	106
  2298                           	
  2299  015F                     i1l4176:	
  2300                           ;main.c: 106: if(input_counter == (25 - 4))
  2301  015F  3015               	movlw	015h
  2302  0160  065F               	xorwf	(isr@input_counter),w
  2303  0161  0460               	iorwf	(isr@input_counter+1),w
  2304  0162  1D03               	skipz
  2305  0163  2965               	goto	u263_21
  2306  0164  2966               	goto	u263_20
  2307  0165                     u263_21:
  2308  0165  296B               	goto	i1l4180
  2309  0166                     u263_20:
  2310                           	line	107
  2311                           	
  2312  0166                     i1l4178:	
  2313                           ;main.c: 107: retval = 0x0D;
  2314  0166  300D               	movlw	(0Dh)
  2315  0167  00BD               	movwf	(??_isr+0)+0
  2316  0168  083D               	movf	(??_isr+0)+0,w
  2317  0169  00DE               	movwf	(isr@retval)
  2318  016A  296B               	goto	i1l4180
  2319                           	
  2320  016B                     i1l741:	
  2321                           	line	108
  2322                           	
  2323  016B                     i1l4180:	
  2324                           ;main.c: 108: retval = getc_spdswtch();
  2325  016B  118A  25A2  118A   	fcall	_getc_spdswtch
  2326  016E  1283               	bcf	status, 5	;RP0=0, select bank0
  2327  016F  1303               	bcf	status, 6	;RP1=0, select bank0
  2328  0170  00BD               	movwf	(??_isr+0)+0
  2329  0171  083D               	movf	(??_isr+0)+0,w
  2330  0172  00DE               	movwf	(isr@retval)
  2331                           	line	109
  2332                           	
  2333  0173                     i1l4182:	
  2334                           ;main.c: 109: put_c(retval);
  2335  0173  085E               	movf	(isr@retval),w
  2336  0174  118A  257D  118A   	fcall	i1_put_c
  2337                           	line	110
  2338                           	
  2339  0177                     i1l4184:	
  2340                           ;main.c: 110: RCREG = '0';
  2341  0177  3030               	movlw	(030h)
  2342  0178  1283               	bcf	status, 5	;RP0=0, select bank0
  2343  0179  1303               	bcf	status, 6	;RP1=0, select bank0
  2344  017A  009A               	movwf	(26)	;volatile
  2345                           	line	111
  2346                           	
  2347  017B                     i1l4186:	
  2348                           ;main.c: 111: input[input_counter] = retval;
  2349  017B  085E               	movf	(isr@retval),w
  2350  017C  00BD               	movwf	(??_isr+0)+0
  2351  017D  085F               	movf	(isr@input_counter),w
  2352  017E  3E45               	addlw	isr@input&0ffh
  2353  017F  0084               	movwf	fsr0
  2354  0180  083D               	movf	(??_isr+0)+0,w
  2355  0181  1383               	bcf	status, 7	;select IRP bank0
  2356  0182  0080               	movwf	indf
  2357                           	line	112
  2358                           	
  2359  0183                     i1l4188:	
  2360                           ;main.c: 112: input[input_counter + 1] = '\n';
  2361  0183  300A               	movlw	(0Ah)
  2362  0184  00BD               	movwf	(??_isr+0)+0
  2363  0185  085F               	movf	(isr@input_counter),w
  2364  0186  3E01               	addlw	01h
  2365  0187  3E45               	addlw	isr@input&0ffh
  2366  0188  0084               	movwf	fsr0
  2367  0189  083D               	movf	(??_isr+0)+0,w
  2368  018A  0080               	movwf	indf
  2369                           	line	113
  2370                           	
  2371  018B                     i1l4190:	
  2372                           ;main.c: 113: input[input_counter + 2] = '\r';
  2373  018B  300D               	movlw	(0Dh)
  2374  018C  00BD               	movwf	(??_isr+0)+0
  2375  018D  085F               	movf	(isr@input_counter),w
  2376  018E  3E02               	addlw	02h
  2377  018F  3E45               	addlw	isr@input&0ffh
  2378  0190  0084               	movwf	fsr0
  2379  0191  083D               	movf	(??_isr+0)+0,w
  2380  0192  0080               	movwf	indf
  2381                           	line	114
  2382                           	
  2383  0193                     i1l4192:	
  2384                           ;main.c: 114: input[input_counter + 3] = '\0';
  2385  0193  085F               	movf	(isr@input_counter),w
  2386  0194  3E03               	addlw	03h
  2387  0195  3E45               	addlw	isr@input&0ffh
  2388  0196  0084               	movwf	fsr0
  2389  0197  0180               	clrf	indf
  2390                           	line	115
  2391                           	
  2392  0198                     i1l4194:	
  2393                           ;main.c: 115: input_counter++;
  2394  0198  3001               	movlw	low(01h)
  2395  0199  07DF               	addwf	(isr@input_counter),f
  2396  019A  1803               	skipnc
  2397  019B  0AE0               	incf	(isr@input_counter+1),f
  2398  019C  3000               	movlw	high(01h)
  2399  019D  07E0               	addwf	(isr@input_counter+1),f
  2400  019E  299F               	goto	i1l4196
  2401                           	line	116
  2402                           	
  2403  019F                     i1l739:	
  2404                           	line	105
  2405                           	
  2406  019F                     i1l4196:	
  2407  019F  085E               	movf	(isr@retval),w
  2408  01A0  3A0D               	xorlw	0Dh
  2409  01A1  1D03               	skipz
  2410  01A2  29A4               	goto	u264_21
  2411  01A3  29A5               	goto	u264_20
  2412  01A4                     u264_21:
  2413  01A4  295F               	goto	i1l4176
  2414  01A5                     u264_20:
  2415  01A5  29A6               	goto	i1l4198
  2416                           	
  2417  01A6                     i1l742:	
  2418                           	line	117
  2419                           	
  2420  01A6                     i1l4198:	
  2421                           ;main.c: 116: }
  2422                           ;main.c: 117: put_c('\n');
  2423  01A6  300A               	movlw	(0Ah)
  2424  01A7  118A  257D  118A   	fcall	i1_put_c
  2425                           	line	118
  2426                           	
  2427  01AA                     i1l4200:	
  2428                           ;main.c: 118: GIE=1;
  2429  01AA  178B               	bsf	(95/8),(95)&7
  2430  01AB  29AC               	goto	i1l743
  2431                           	line	119
  2432                           	
  2433  01AC                     i1l736:	
  2434                           	line	121
  2435                           	
  2436  01AC                     i1l743:	
  2437  01AC  1283               	bcf	status, 5	;RP0=0, select bank0
  2438  01AD  1303               	bcf	status, 6	;RP1=0, select bank0
  2439  01AE  0844               	movf	(??_isr+7),w
  2440  01AF  00FF               	movwf	btemp+1
  2441  01B0  0843               	movf	(??_isr+6),w
  2442  01B1  008A               	movwf	pclath
  2443  01B2  0842               	movf	(??_isr+5),w
  2444  01B3  0084               	movwf	fsr0
  2445  01B4  0E41               	swapf	(??_isr+4)^00h,w
  2446  01B5  0083               	movwf	status
  2447  01B6  0EFE               	swapf	saved_w,f
  2448  01B7  0E7E               	swapf	saved_w,w
  2449  01B8  0009               	retfie
  2450                           	opt stack 0
  2451                           GLOBAL	__end_of_isr
  2452  01B9                     	__end_of_isr:
  2453 ;; =============== function _isr ends ============
  2454                           
  2455                           	signat	_isr,88
  2456                           	global	_readADC
  2457                           psect	text485,local,class=CODE,delta=2
  2458                           global __ptext485
  2459  0261                     __ptext485:
  2460                           
  2461 ;; *************** function _readADC *****************
  2462 ;; Defined at:
  2463 ;;		line 175 in file "../main.c"
  2464 ;; Parameters:    Size  Location     Type
  2465 ;;		None
  2466 ;; Auto vars:     Size  Location     Type
  2467 ;;  output         10   17[BANK0 ] unsigned char [10]
  2468 ;;  adcValue        2   27[BANK0 ] unsigned int 
  2469 ;; Return value:  Size  Location     Type
  2470 ;;		None               void
  2471 ;; Registers used:
  2472 ;;		wreg, fsr0l, fsr0h, fsr1l, fsr1h, status,2, status,0, btemp+1, pclath, cstack
  2473 ;; Tracked objects:
  2474 ;;		On entry : 0/0
  2475 ;;		On exit  : 0/0
  2476 ;;		Unchanged: 0/0
  2477 ;; Data sizes:     COMMON   BANK0   BANK1   BANK2
  2478 ;;      Params:         0       0       0       0
  2479 ;;      Locals:         0      12       0       0
  2480 ;;      Temps:          0       2       0       0
  2481 ;;      Totals:         0      14       0       0
  2482 ;;Total ram usage:       14 bytes
  2483 ;; Hardware stack levels used:    1
  2484 ;; Hardware stack levels required when called:    3
  2485 ;; This function calls:
  2486 ;;		i1_putstring_spdswtch
  2487 ;;		_sprintf
  2488 ;;		i1_putstring
  2489 ;;		i1__delay_ms
  2490 ;; This function is called by:
  2491 ;;		_isr
  2492 ;; This function uses a non-reentrant model
  2493 ;;
  2494                           psect	text485
  2495                           	file	"../main.c"
  2496                           	line	175
  2497                           	global	__size_of_readADC
  2498  006F                     	__size_of_readADC	equ	__end_of_readADC-_readADC
  2499                           	
  2500  0261                     _readADC:	
  2501                           	opt	stack 0
  2502                           ; Regs used in _readADC: [allreg]
  2503                           	line	179
  2504                           	
  2505  0261                     i1l4202:	
  2506                           ;main.c: 177: unsigned int adcValue;
  2507                           ;main.c: 179: GODONE = 1;
  2508  0261  1283               	bcf	status, 5	;RP0=0, select bank0
  2509  0262  1303               	bcf	status, 6	;RP1=0, select bank0
  2510  0263  149F               	bsf	(249/8),(249)&7
  2511                           	line	180
  2512                           ;main.c: 180: while(GODONE) continue;
  2513  0264  2A65               	goto	i1l764
  2514                           	
  2515  0265                     i1l765:	
  2516                           	
  2517  0265                     i1l764:	
  2518  0265  189F               	btfsc	(249/8),(249)&7
  2519  0266  2A68               	goto	u265_21
  2520  0267  2A69               	goto	u265_20
  2521  0268                     u265_21:
  2522  0268  2A65               	goto	i1l764
  2523  0269                     u265_20:
  2524  0269  2A6A               	goto	i1l4204
  2525                           	
  2526  026A                     i1l766:	
  2527                           	line	181
  2528                           	
  2529  026A                     i1l4204:	
  2530                           ;main.c: 181: adcValue=ADRESL;
  2531  026A  1683               	bsf	status, 5	;RP0=1, select bank1
  2532  026B  1303               	bcf	status, 6	;RP1=0, select bank1
  2533  026C  081E               	movf	(158)^080h,w	;volatile
  2534  026D  1283               	bcf	status, 5	;RP0=0, select bank0
  2535  026E  1303               	bcf	status, 6	;RP1=0, select bank0
  2536  026F  00AF               	movwf	(??_readADC+0)+0
  2537  0270  01B0               	clrf	(??_readADC+0)+0+1
  2538  0271  082F               	movf	0+(??_readADC+0)+0,w
  2539  0272  00BB               	movwf	(readADC@adcValue)
  2540  0273  0830               	movf	1+(??_readADC+0)+0,w
  2541  0274  00BC               	movwf	(readADC@adcValue+1)
  2542                           	line	182
  2543                           	
  2544  0275                     i1l4206:	
  2545                           ;main.c: 182: adcValue += (ADRESH << 8);
  2546  0275  081E               	movf	(30),w	;volatile
  2547  0276  00AF               	movwf	(??_readADC+0)+0
  2548  0277  01B0               	clrf	(??_readADC+0)+0+1
  2549  0278  082F               	movf	(??_readADC+0)+0,w
  2550  0279  00B0               	movwf	(??_readADC+0)+1
  2551  027A  01AF               	clrf	(??_readADC+0)+0
  2552  027B  082F               	movf	0+(??_readADC+0)+0,w
  2553  027C  07BB               	addwf	(readADC@adcValue),f
  2554  027D  1803               	skipnc
  2555  027E  0ABC               	incf	(readADC@adcValue+1),f
  2556  027F  0830               	movf	1+(??_readADC+0)+0,w
  2557  0280  07BC               	addwf	(readADC@adcValue+1),f
  2558                           	line	184
  2559                           	
  2560  0281                     i1l4208:	
  2561                           ;main.c: 183: char output[10];
  2562                           ;main.c: 184: if(adcValue < 512){
  2563  0281  3002               	movlw	high(0200h)
  2564  0282  023C               	subwf	(readADC@adcValue+1),w
  2565  0283  3000               	movlw	low(0200h)
  2566  0284  1903               	skipnz
  2567  0285  023B               	subwf	(readADC@adcValue),w
  2568  0286  1803               	skipnc
  2569  0287  2A89               	goto	u266_21
  2570  0288  2A8A               	goto	u266_20
  2571  0289                     u266_21:
  2572  0289  2AB3               	goto	i1l4222
  2573  028A                     u266_20:
  2574                           	line	185
  2575                           	
  2576  028A                     i1l4210:	
  2577                           ;main.c: 185: putstring_spdswtch("NOK \0");
  2578  028A  3037               	movlw	((STR_2-__stringbase))&0ffh
  2579  028B  118A  2594  118A   	fcall	i1_putstring_spdswtch
  2580                           	line	186
  2581                           	
  2582  028E                     i1l4212:	
  2583                           ;main.c: 186: sprintf(output,"M%d;", adcValue);
  2584  028E  303D               	movlw	((STR_3-__stringbase))&0ffh
  2585  028F  1283               	bcf	status, 5	;RP0=0, select bank0
  2586  0290  1303               	bcf	status, 6	;RP1=0, select bank0
  2587  0291  00AF               	movwf	(??_readADC+0)+0
  2588  0292  082F               	movf	(??_readADC+0)+0,w
  2589  0293  00A0               	movwf	(?_sprintf)
  2590  0294  083C               	movf	(readADC@adcValue+1),w
  2591  0295  01A2               	clrf	1+(?_sprintf)+01h
  2592  0296  07A2               	addwf	1+(?_sprintf)+01h
  2593  0297  083B               	movf	(readADC@adcValue),w
  2594  0298  01A1               	clrf	0+(?_sprintf)+01h
  2595  0299  07A1               	addwf	0+(?_sprintf)+01h
  2596                           
  2597  029A  3031               	movlw	(readADC@output)&0ffh
  2598  029B  118A  2013  118A   	fcall	_sprintf
  2599                           	line	187
  2600                           	
  2601  029E                     i1l4214:	
  2602                           ;main.c: 187: putstring(output);
  2603  029E  3031               	movlw	(readADC@output&0ffh)
  2604  029F  00F1               	movwf	(?i1_putstring)
  2605  02A0  3000               	movlw	(0x0/2)
  2606  02A1  00F2               	movwf	(?i1_putstring+1)
  2607  02A2  118A  247F  118A   	fcall	i1_putstring
  2608                           	line	188
  2609                           	
  2610  02A5                     i1l4216:	
  2611                           ;main.c: 188: RA0 = 0;
  2612  02A5  1283               	bcf	status, 5	;RP0=0, select bank0
  2613  02A6  1303               	bcf	status, 6	;RP1=0, select bank0
  2614  02A7  1005               	bcf	(40/8),(40)&7
  2615                           	line	189
  2616                           	
  2617  02A8                     i1l4218:	
  2618                           ;main.c: 189: _delay_ms(1000);
  2619  02A8  30E8               	movlw	low(03E8h)
  2620  02A9  00F0               	movwf	(?i1__delay_ms)
  2621  02AA  3003               	movlw	high(03E8h)
  2622  02AB  00F1               	movwf	((?i1__delay_ms))+1
  2623  02AC  118A  24D3  118A   	fcall	i1__delay_ms
  2624                           	line	190
  2625                           	
  2626  02AF                     i1l4220:	
  2627                           ;main.c: 190: RA0 = 1;
  2628  02AF  1283               	bcf	status, 5	;RP0=0, select bank0
  2629  02B0  1303               	bcf	status, 6	;RP1=0, select bank0
  2630  02B1  1405               	bsf	(40/8),(40)&7
  2631                           	line	191
  2632                           ;main.c: 191: }
  2633  02B2  2ACF               	goto	i1l769
  2634                           	line	192
  2635                           	
  2636  02B3                     i1l767:	
  2637                           	line	193
  2638                           	
  2639  02B3                     i1l4222:	
  2640                           ;main.c: 192: else{
  2641                           ;main.c: 193: putstring_spdswtch("OK \0");
  2642  02B3  3038               	movlw	((STR_4-__stringbase))&0ffh
  2643  02B4  118A  2594  118A   	fcall	i1_putstring_spdswtch
  2644                           	line	194
  2645                           	
  2646  02B7                     i1l4224:	
  2647                           ;main.c: 194: sprintf(output,"M%d;", adcValue);
  2648  02B7  303D               	movlw	((STR_5-__stringbase))&0ffh
  2649  02B8  1283               	bcf	status, 5	;RP0=0, select bank0
  2650  02B9  1303               	bcf	status, 6	;RP1=0, select bank0
  2651  02BA  00AF               	movwf	(??_readADC+0)+0
  2652  02BB  082F               	movf	(??_readADC+0)+0,w
  2653  02BC  00A0               	movwf	(?_sprintf)
  2654  02BD  083C               	movf	(readADC@adcValue+1),w
  2655  02BE  01A2               	clrf	1+(?_sprintf)+01h
  2656  02BF  07A2               	addwf	1+(?_sprintf)+01h
  2657  02C0  083B               	movf	(readADC@adcValue),w
  2658  02C1  01A1               	clrf	0+(?_sprintf)+01h
  2659  02C2  07A1               	addwf	0+(?_sprintf)+01h
  2660                           
  2661  02C3  3031               	movlw	(readADC@output)&0ffh
  2662  02C4  118A  2013  118A   	fcall	_sprintf
  2663                           	line	195
  2664                           	
  2665  02C7                     i1l4226:	
  2666                           ;main.c: 195: putstring(output);
  2667  02C7  3031               	movlw	(readADC@output&0ffh)
  2668  02C8  00F1               	movwf	(?i1_putstring)
  2669  02C9  3000               	movlw	(0x0/2)
  2670  02CA  00F2               	movwf	(?i1_putstring+1)
  2671  02CB  118A  247F  118A   	fcall	i1_putstring
  2672  02CE  2ACF               	goto	i1l769
  2673                           	line	196
  2674                           	
  2675  02CF                     i1l768:	
  2676                           	line	200
  2677                           	
  2678  02CF                     i1l769:	
  2679  02CF  0008               	return
  2680                           	opt stack 0
  2681                           GLOBAL	__end_of_readADC
  2682  02D0                     	__end_of_readADC:
  2683 ;; =============== function _readADC ends ============
  2684                           
  2685                           	signat	_readADC,88
  2686                           	global	i1_putstring_spdswtch
  2687                           psect	text486,local,class=CODE,delta=2
  2688                           global __ptext486
  2689  0594                     __ptext486:
  2690                           
  2691 ;; *************** function i1_putstring_spdswtch *****************
  2692 ;; Defined at:
  2693 ;;		line 216 in file "../main.c"
  2694 ;; Parameters:    Size  Location     Type
  2695 ;;  putstring_sp    1    wreg     PTR unsigned char 
  2696 ;;		 -> STR_4(5), STR_2(6), 
  2697 ;; Auto vars:     Size  Location     Type
  2698 ;;  putstring_sp    1    5[COMMON] PTR unsigned char 
  2699 ;;		 -> STR_4(5), STR_2(6), 
  2700 ;; Return value:  Size  Location     Type
  2701 ;;		None               void
  2702 ;; Registers used:
  2703 ;;		wreg, fsr0l, fsr0h, status,2, status,0, btemp+1, pclath, cstack
  2704 ;; Tracked objects:
  2705 ;;		On entry : 0/0
  2706 ;;		On exit  : 0/0
  2707 ;;		Unchanged: 0/0
  2708 ;; Data sizes:     COMMON   BANK0   BANK1   BANK2
  2709 ;;      Params:         0       0       0       0
  2710 ;;      Locals:         1       0       0       0
  2711 ;;      Temps:          0       0       0       0
  2712 ;;      Totals:         1       0       0       0
  2713 ;;Total ram usage:        1 bytes
  2714 ;; Hardware stack levels used:    1
  2715 ;; Hardware stack levels required when called:    2
  2716 ;; This function calls:
  2717 ;;		i1_putstring
  2718 ;; This function is called by:
  2719 ;;		_readADC
  2720 ;; This function uses a non-reentrant model
  2721 ;;
  2722                           psect	text486
  2723                           	file	"../main.c"
  2724                           	line	216
  2725                           	global	__size_ofi1_putstring_spdswtch
  2726  0009                     	__size_ofi1_putstring_spdswtch	equ	__end_ofi1_putstring_spdswtch-i1_putstring_spdswtch
  2727                           	
  2728  0594                     i1_putstring_spdswtch:	
  2729                           	opt	stack 0
  2730                           ; Regs used in i1_putstring_spdswtch: [wreg-fsr0h+status,2+status,0+btemp+1+pclath+cstac
                                 k]
  2731                           ;i1putstring_spdswtch@string stored from wreg
  2732                           	line	222
  2733  0594  00F5               	movwf	(i1putstring_spdswtch@string)
  2734                           	
  2735  0595                     i1l4414:	
  2736                           ;main.c: 222: putstring(string);
  2737  0595  0875               	movf	(i1putstring_spdswtch@string),w
  2738  0596  00F1               	movwf	(?i1_putstring)
  2739  0597  3080               	movlw	80h
  2740  0598  00F2               	movwf	(?i1_putstring+1)
  2741  0599  118A  247F  118A   	fcall	i1_putstring
  2742                           	line	227
  2743                           	
  2744  059C                     i1l775:	
  2745  059C  0008               	return
  2746                           	opt stack 0
  2747                           GLOBAL	__end_ofi1_putstring_spdswtch
  2748  059D                     	__end_ofi1_putstring_spdswtch:
  2749 ;; =============== function i1_putstring_spdswtch ends ============
  2750                           
  2751                           	signat	i1_putstring_spdswtch,88
  2752                           	global	i1_putstring
  2753                           psect	text487,local,class=CODE,delta=2
  2754                           global __ptext487
  2755  047F                     __ptext487:
  2756                           
  2757 ;; *************** function i1_putstring *****************
  2758 ;; Defined at:
  2759 ;;		line 28 in file "../uart.c"
  2760 ;; Parameters:    Size  Location     Type
  2761 ;;  putstring       2    1[COMMON] PTR unsigned char 
  2762 ;;		 -> STR_4(5), readADC@output(10), STR_2(6), STR_1(44), 
  2763 ;; Auto vars:     Size  Location     Type
  2764 ;;  putstring       2    3[COMMON] int 
  2765 ;; Return value:  Size  Location     Type
  2766 ;;		None               void
  2767 ;; Registers used:
  2768 ;;		wreg, fsr0l, fsr0h, status,2, status,0, btemp+1, pclath, cstack
  2769 ;; Tracked objects:
  2770 ;;		On entry : 0/0
  2771 ;;		On exit  : 0/0
  2772 ;;		Unchanged: 0/0
  2773 ;; Data sizes:     COMMON   BANK0   BANK1   BANK2
  2774 ;;      Params:         2       0       0       0
  2775 ;;      Locals:         2       0       0       0
  2776 ;;      Temps:          0       0       0       0
  2777 ;;      Totals:         4       0       0       0
  2778 ;;Total ram usage:        4 bytes
  2779 ;; Hardware stack levels used:    1
  2780 ;; Hardware stack levels required when called:    1
  2781 ;; This function calls:
  2782 ;;		i1_put_c
  2783 ;; This function is called by:
  2784 ;;		_readADC
  2785 ;;		i1_putstring_spdswtch
  2786 ;; This function uses a non-reentrant model
  2787 ;;
  2788                           psect	text487
  2789                           	file	"../uart.c"
  2790                           	line	28
  2791                           	global	__size_ofi1_putstring
  2792  002C                     	__size_ofi1_putstring	equ	__end_ofi1_putstring-i1_putstring
  2793                           	
  2794  047F                     i1_putstring:	
  2795                           	opt	stack 1
  2796                           ; Regs used in i1_putstring: [wreg-fsr0h+status,2+status,0+btemp+1+pclath+cstack]
  2797                           	line	29
  2798                           	
  2799  047F                     i1l4416:	
  2800                           ;uart.c: 29: int chr = 0;
  2801  047F  01F3               	clrf	(i1putstring@chr)
  2802  0480  01F4               	clrf	(i1putstring@chr+1)
  2803                           	line	30
  2804                           ;uart.c: 30: while(string[chr] != '\0')
  2805  0481  2C98               	goto	i1l4422
  2806                           	
  2807  0482                     i1l1671:	
  2808                           	line	32
  2809                           	
  2810  0482                     i1l4418:	
  2811                           ;uart.c: 31: {
  2812                           ;uart.c: 32: put_c(string[chr]);
  2813  0482  0873               	movf	(i1putstring@chr),w
  2814  0483  0771               	addwf	(i1putstring@string),w
  2815  0484  0084               	movwf	fsr0
  2816  0485  0872               	movf	(i1putstring@string+1),w
  2817  0486  1803               	skipnc
  2818  0487  0A72               	incf	(i1putstring@string+1),w
  2819  0488  1283               	bcf	status, 5	;RP0=0, select bank0
  2820  0489  1303               	bcf	status, 6	;RP1=0, select bank0
  2821  048A  00FF               	movwf	btemp+1
  2822  048B  118A  2300  118A   	fcall	stringtab
  2823  048E  118A  257D  118A   	fcall	i1_put_c
  2824                           	line	33
  2825                           	
  2826  0491                     i1l4420:	
  2827                           ;uart.c: 33: chr++;
  2828  0491  3001               	movlw	low(01h)
  2829  0492  07F3               	addwf	(i1putstring@chr),f
  2830  0493  1803               	skipnc
  2831  0494  0AF4               	incf	(i1putstring@chr+1),f
  2832  0495  3000               	movlw	high(01h)
  2833  0496  07F4               	addwf	(i1putstring@chr+1),f
  2834  0497  2C98               	goto	i1l4422
  2835                           	line	34
  2836                           	
  2837  0498                     i1l1670:	
  2838                           	line	30
  2839                           	
  2840  0498                     i1l4422:	
  2841  0498  0873               	movf	(i1putstring@chr),w
  2842  0499  0771               	addwf	(i1putstring@string),w
  2843  049A  0084               	movwf	fsr0
  2844  049B  0872               	movf	(i1putstring@string+1),w
  2845  049C  1803               	skipnc
  2846  049D  0A72               	incf	(i1putstring@string+1),w
  2847  049E  1283               	bcf	status, 5	;RP0=0, select bank0
  2848  049F  1303               	bcf	status, 6	;RP1=0, select bank0
  2849  04A0  00FF               	movwf	btemp+1
  2850  04A1  118A  2300  118A   	fcall	stringtab
  2851  04A4  3800               	iorlw	0
  2852  04A5  1D03               	skipz
  2853  04A6  2CA8               	goto	u307_21
  2854  04A7  2CA9               	goto	u307_20
  2855  04A8                     u307_21:
  2856  04A8  2C82               	goto	i1l4418
  2857  04A9                     u307_20:
  2858  04A9  2CAA               	goto	i1l1673
  2859                           	
  2860  04AA                     i1l1672:	
  2861                           	line	35
  2862                           	
  2863  04AA                     i1l1673:	
  2864  04AA  0008               	return
  2865                           	opt stack 0
  2866                           GLOBAL	__end_ofi1_putstring
  2867  04AB                     	__end_ofi1_putstring:
  2868 ;; =============== function i1_putstring ends ============
  2869                           
  2870                           	signat	i1_putstring,88
  2871                           	global	_sprintf
  2872                           psect	text488,local,class=CODE,delta=2
  2873                           global __ptext488
  2874  0013                     __ptext488:
  2875                           
  2876 ;; *************** function _sprintf *****************
  2877 ;; Defined at:
  2878 ;;		line 488 in file "/usr/hitech/picc/9.83/lib/doprnt.c"
  2879 ;; Parameters:    Size  Location     Type
  2880 ;;  sp              1    wreg     PTR unsigned char 
  2881 ;;		 -> readADC@output(10), 
  2882 ;;  f               1    0[BANK0 ] PTR const unsigned char 
  2883 ;;		 -> STR_5(5), STR_3(5), 
  2884 ;; Auto vars:     Size  Location     Type
  2885 ;;  sp              1   13[BANK0 ] PTR unsigned char 
  2886 ;;		 -> readADC@output(10), 
  2887 ;;  _val            4    9[BANK0 ] struct .
  2888 ;;  c               1   14[BANK0 ] char 
  2889 ;;  prec            1    8[BANK0 ] char 
  2890 ;;  flag            1    7[BANK0 ] unsigned char 
  2891 ;;  ap              1    6[BANK0 ] PTR void [1]
  2892 ;;		 -> ?_sprintf(2), 
  2893 ;; Return value:  Size  Location     Type
  2894 ;;                  2    0[BANK0 ] int 
  2895 ;; Registers used:
  2896 ;;		wreg, fsr0l, fsr0h, status,2, status,0, btemp+1, pclath, cstack
  2897 ;; Tracked objects:
  2898 ;;		On entry : 0/0
  2899 ;;		On exit  : 0/0
  2900 ;;		Unchanged: 0/0
  2901 ;; Data sizes:     COMMON   BANK0   BANK1   BANK2
  2902 ;;      Params:         0       3       0       0
  2903 ;;      Locals:         0       9       0       0
  2904 ;;      Temps:          0       3       0       0
  2905 ;;      Totals:         0      15       0       0
  2906 ;;Total ram usage:       15 bytes
  2907 ;; Hardware stack levels used:    1
  2908 ;; Hardware stack levels required when called:    1
  2909 ;; This function calls:
  2910 ;;		___lwdiv
  2911 ;;		___lwmod
  2912 ;; This function is called by:
  2913 ;;		_readADC
  2914 ;; This function uses a non-reentrant model
  2915 ;;
  2916                           psect	text488
  2917                           	file	"/usr/hitech/picc/9.83/sources/doprnt.c"
  2918                           	line	488
  2919                           	global	__size_of_sprintf
  2920  00EE                     	__size_of_sprintf	equ	__end_of_sprintf-_sprintf
  2921                           	
  2922  0013                     _sprintf:	
  2923                           	opt	stack 1
  2924                           ; Regs used in _sprintf: [wreg-fsr0h+status,2+status,0+btemp+1+pclath+cstack]
  2925                           ;sprintf@sp stored from wreg
  2926                           	line	537
  2927  0013  1283               	bcf	status, 5	;RP0=0, select bank0
  2928  0014  1303               	bcf	status, 6	;RP1=0, select bank0
  2929  0015  00AD               	movwf	(sprintf@sp)
  2930                           	
  2931  0016                     i1l4244:	
  2932  0016  3021               	movlw	(?_sprintf+01h)&0ffh
  2933  0017  00A3               	movwf	(??_sprintf+0)+0
  2934  0018  0823               	movf	(??_sprintf+0)+0,w
  2935  0019  00A6               	movwf	(sprintf@ap)
  2936                           	line	540
  2937  001A  28E9               	goto	i1l4296
  2938                           	
  2939  001B                     i1l1697:	
  2940                           	line	542
  2941                           	
  2942  001B                     i1l4246:	
  2943  001B  082E               	movf	(sprintf@c),w
  2944  001C  3A25               	xorlw	025h
  2945  001D  1903               	skipnz
  2946  001E  2820               	goto	u271_21
  2947  001F  2821               	goto	u271_20
  2948  0020                     u271_21:
  2949  0020  282D               	goto	i1l1698
  2950  0021                     u271_20:
  2951                           	line	545
  2952                           	
  2953  0021                     i1l4248:	
  2954  0021  082E               	movf	(sprintf@c),w
  2955  0022  00A3               	movwf	(??_sprintf+0)+0
  2956  0023  082D               	movf	(sprintf@sp),w
  2957  0024  0084               	movwf	fsr0
  2958  0025  0823               	movf	(??_sprintf+0)+0,w
  2959  0026  1383               	bcf	status, 7	;select IRP bank0
  2960  0027  0080               	movwf	indf
  2961                           	
  2962  0028                     i1l4250:	
  2963  0028  3001               	movlw	(01h)
  2964  0029  00A3               	movwf	(??_sprintf+0)+0
  2965  002A  0823               	movf	(??_sprintf+0)+0,w
  2966  002B  07AD               	addwf	(sprintf@sp),f
  2967                           	line	546
  2968  002C  28E9               	goto	i1l4296
  2969                           	line	547
  2970                           	
  2971  002D                     i1l1698:	
  2972                           	line	552
  2973  002D  01A7               	clrf	(sprintf@flag)
  2974                           	line	638
  2975  002E  2834               	goto	i1l4254
  2976                           	line	640
  2977                           	
  2978  002F                     i1l1700:	
  2979                           	line	641
  2980  002F  28FB               	goto	i1l4298
  2981                           	line	700
  2982                           	
  2983  0030                     i1l1702:	
  2984  0030  2847               	goto	i1l4256
  2985                           	line	701
  2986                           	
  2987  0031                     i1l1703:	
  2988                           	line	702
  2989  0031  2847               	goto	i1l4256
  2990                           	line	805
  2991                           	
  2992  0032                     i1l1705:	
  2993                           	line	816
  2994  0032  28E9               	goto	i1l4296
  2995                           	line	825
  2996                           	
  2997  0033                     i1l4252:	
  2998  0033  2847               	goto	i1l4256
  2999                           	line	638
  3000                           	
  3001  0034                     i1l1699:	
  3002                           	
  3003  0034                     i1l4254:	
  3004  0034  3001               	movlw	01h
  3005  0035  07A0               	addwf	(sprintf@f),f
  3006  0036  30FF               	movlw	-01h
  3007  0037  0720               	addwf	(sprintf@f),w
  3008  0038  0084               	movwf	fsr0
  3009  0039  118A  230A  118A   	fcall	stringdir
  3010  003C  00AE               	movwf	(sprintf@c)
  3011                           	; Switch size 1, requested type "space"
  3012                           ; Number of cases is 3, Range of values is 0 to 105
  3013                           ; switch strategies available:
  3014                           ; Name         Instructions Cycles
  3015                           ; simple_byte           10     6 (average)
  3016                           ; direct_byte          219     7 (fixed)
  3017                           ; jumptable            260     6 (fixed)
  3018                           ; rangetable           110     6 (fixed)
  3019                           ; spacedrange          218     9 (fixed)
  3020                           ; locatedrange         106     3 (fixed)
  3021                           ;	Chosen strategy is simple_byte
  3022                           
  3023                           	opt asmopt_off
  3024  003D  3A00               	xorlw	0^0	; case 0
  3025  003E  1903               	skipnz
  3026  003F  28FB               	goto	i1l4298
  3027  0040  3A64               	xorlw	100^0	; case 100
  3028  0041  1903               	skipnz
  3029  0042  2847               	goto	i1l4256
  3030  0043  3A0D               	xorlw	105^100	; case 105
  3031  0044  1903               	skipnz
  3032  0045  2847               	goto	i1l4256
  3033  0046  28E9               	goto	i1l4296
  3034                           	opt asmopt_on
  3035                           
  3036                           	line	825
  3037                           	
  3038  0047                     i1l1704:	
  3039                           	line	1254
  3040                           	
  3041  0047                     i1l4256:	
  3042  0047  0826               	movf	(sprintf@ap),w
  3043  0048  0084               	movwf	fsr0
  3044  0049  1383               	bcf	status, 7	;select IRP bank0
  3045  004A  0800               	movf	indf,w
  3046  004B  00A9               	movwf	(sprintf@_val)
  3047  004C  0A84               	incf	fsr0,f
  3048  004D  0800               	movf	indf,w
  3049  004E  00AA               	movwf	(sprintf@_val+1)
  3050                           	
  3051  004F                     i1l4258:	
  3052  004F  3002               	movlw	(02h)
  3053  0050  00A3               	movwf	(??_sprintf+0)+0
  3054  0051  0823               	movf	(??_sprintf+0)+0,w
  3055  0052  07A6               	addwf	(sprintf@ap),f
  3056                           	line	1256
  3057                           	
  3058  0053                     i1l4260:	
  3059  0053  1FAA               	btfss	(sprintf@_val+1),7
  3060  0054  2856               	goto	u272_21
  3061  0055  2857               	goto	u272_20
  3062  0056                     u272_21:
  3063  0056  2861               	goto	i1l4266
  3064  0057                     u272_20:
  3065                           	line	1257
  3066                           	
  3067  0057                     i1l4262:	
  3068  0057  3003               	movlw	(03h)
  3069  0058  00A3               	movwf	(??_sprintf+0)+0
  3070  0059  0823               	movf	(??_sprintf+0)+0,w
  3071  005A  04A7               	iorwf	(sprintf@flag),f
  3072                           	line	1258
  3073                           	
  3074  005B                     i1l4264:	
  3075  005B  09A9               	comf	(sprintf@_val),f
  3076  005C  09AA               	comf	(sprintf@_val+1),f
  3077  005D  0AA9               	incf	(sprintf@_val),f
  3078  005E  1903               	skipnz
  3079  005F  0AAA               	incf	(sprintf@_val+1),f
  3080  0060  2861               	goto	i1l4266
  3081                           	line	1259
  3082                           	
  3083  0061                     i1l1706:	
  3084                           	line	1300
  3085                           	
  3086  0061                     i1l4266:	
  3087  0061  01AE               	clrf	(sprintf@c)
  3088  0062  1403               	bsf	status,0
  3089  0063  0DAE               	rlf	(sprintf@c),f
  3090                           	
  3091  0064                     i1l4268:	
  3092  0064  082E               	movf	(sprintf@c),w
  3093  0065  3A05               	xorlw	05h
  3094  0066  1D03               	skipz
  3095  0067  2869               	goto	u273_21
  3096  0068  286A               	goto	u273_20
  3097  0069                     u273_21:
  3098  0069  286C               	goto	i1l4272
  3099  006A                     u273_20:
  3100  006A  2890               	goto	i1l4280
  3101                           	
  3102  006B                     i1l4270:	
  3103  006B  2890               	goto	i1l4280
  3104                           	line	1301
  3105                           	
  3106  006C                     i1l1707:	
  3107                           	
  3108  006C                     i1l4272:	
  3109  006C  082E               	movf	(sprintf@c),w
  3110  006D  00A3               	movwf	(??_sprintf+0)+0
  3111  006E  0723               	addwf	(??_sprintf+0)+0,w
  3112  006F  3E01               	addlw	low((_dpowers-__stringbase))
  3113  0070  0084               	movwf	fsr0
  3114  0071  118A  230A  118A   	fcall	stringdir
  3115  0074  00A4               	movwf	(??_sprintf+1)+0
  3116  0075  118A  230A  118A   	fcall	stringdir
  3117  0078  00A5               	movwf	(??_sprintf+1)+0+1
  3118  0079  0825               	movf	1+(??_sprintf+1)+0,w
  3119  007A  022A               	subwf	(sprintf@_val+1),w
  3120  007B  1D03               	skipz
  3121  007C  287F               	goto	u274_25
  3122  007D  0824               	movf	0+(??_sprintf+1)+0,w
  3123  007E  0229               	subwf	(sprintf@_val),w
  3124  007F                     u274_25:
  3125  007F  1803               	skipnc
  3126  0080  2882               	goto	u274_21
  3127  0081  2883               	goto	u274_20
  3128  0082                     u274_21:
  3129  0082  2885               	goto	i1l4276
  3130  0083                     u274_20:
  3131  0083  2890               	goto	i1l4280
  3132                           	line	1302
  3133                           	
  3134  0084                     i1l4274:	
  3135  0084  2890               	goto	i1l4280
  3136                           	
  3137  0085                     i1l1709:	
  3138                           	line	1300
  3139                           	
  3140  0085                     i1l4276:	
  3141  0085  3001               	movlw	(01h)
  3142  0086  00A3               	movwf	(??_sprintf+0)+0
  3143  0087  0823               	movf	(??_sprintf+0)+0,w
  3144  0088  07AE               	addwf	(sprintf@c),f
  3145                           	
  3146  0089                     i1l4278:	
  3147  0089  082E               	movf	(sprintf@c),w
  3148  008A  3A05               	xorlw	05h
  3149  008B  1D03               	skipz
  3150  008C  288E               	goto	u275_21
  3151  008D  288F               	goto	u275_20
  3152  008E                     u275_21:
  3153  008E  286C               	goto	i1l4272
  3154  008F                     u275_20:
  3155  008F  2890               	goto	i1l4280
  3156                           	
  3157  0090                     i1l1708:	
  3158                           	line	1433
  3159                           	
  3160  0090                     i1l4280:	
  3161  0090  0827               	movf	(sprintf@flag),w
  3162  0091  3903               	andlw	03h
  3163  0092  1903               	btfsc	status,2
  3164  0093  2895               	goto	u276_21
  3165  0094  2896               	goto	u276_20
  3166  0095                     u276_21:
  3167  0095  28A2               	goto	i1l4286
  3168  0096                     u276_20:
  3169                           	line	1434
  3170                           	
  3171  0096                     i1l4282:	
  3172  0096  302D               	movlw	(02Dh)
  3173  0097  00A3               	movwf	(??_sprintf+0)+0
  3174  0098  082D               	movf	(sprintf@sp),w
  3175  0099  0084               	movwf	fsr0
  3176  009A  0823               	movf	(??_sprintf+0)+0,w
  3177  009B  1383               	bcf	status, 7	;select IRP bank0
  3178  009C  0080               	movwf	indf
  3179                           	
  3180  009D                     i1l4284:	
  3181  009D  3001               	movlw	(01h)
  3182  009E  00A3               	movwf	(??_sprintf+0)+0
  3183  009F  0823               	movf	(??_sprintf+0)+0,w
  3184  00A0  07AD               	addwf	(sprintf@sp),f
  3185  00A1  28A2               	goto	i1l4286
  3186                           	
  3187  00A2                     i1l1710:	
  3188                           	line	1467
  3189                           	
  3190  00A2                     i1l4286:	
  3191  00A2  082E               	movf	(sprintf@c),w
  3192  00A3  00A3               	movwf	(??_sprintf+0)+0
  3193  00A4  0823               	movf	(??_sprintf+0)+0,w
  3194  00A5  00A8               	movwf	(sprintf@prec)
  3195                           	line	1469
  3196  00A6  28DD               	goto	i1l4294
  3197                           	
  3198  00A7                     i1l1712:	
  3199                           	line	1484
  3200                           	
  3201  00A7                     i1l4288:	
  3202  00A7  300A               	movlw	low(0Ah)
  3203  00A8  00F8               	movwf	(?___lwmod)
  3204  00A9  3000               	movlw	high(0Ah)
  3205  00AA  00F9               	movwf	((?___lwmod))+1
  3206  00AB  0828               	movf	(sprintf@prec),w
  3207  00AC  00A3               	movwf	(??_sprintf+0)+0
  3208  00AD  0723               	addwf	(??_sprintf+0)+0,w
  3209  00AE  3E01               	addlw	low((_dpowers-__stringbase))
  3210  00AF  0084               	movwf	fsr0
  3211  00B0  118A  230A  118A   	fcall	stringdir
  3212  00B3  00F0               	movwf	(?___lwdiv)
  3213  00B4  118A  230A  118A   	fcall	stringdir
  3214  00B7  00F1               	movwf	(?___lwdiv+1)
  3215  00B8  082A               	movf	(sprintf@_val+1),w
  3216  00B9  01F3               	clrf	1+(?___lwdiv)+02h
  3217  00BA  07F3               	addwf	1+(?___lwdiv)+02h
  3218  00BB  0829               	movf	(sprintf@_val),w
  3219  00BC  01F2               	clrf	0+(?___lwdiv)+02h
  3220  00BD  07F2               	addwf	0+(?___lwdiv)+02h
  3221                           
  3222  00BE  118A  2351  118A   	fcall	___lwdiv
  3223  00C1  0871               	movf	(1+(?___lwdiv)),w
  3224  00C2  01FB               	clrf	1+(?___lwmod)+02h
  3225  00C3  07FB               	addwf	1+(?___lwmod)+02h
  3226  00C4  0870               	movf	(0+(?___lwdiv)),w
  3227  00C5  01FA               	clrf	0+(?___lwmod)+02h
  3228  00C6  07FA               	addwf	0+(?___lwmod)+02h
  3229                           
  3230  00C7  118A  239F  118A   	fcall	___lwmod
  3231  00CA  0878               	movf	(0+(?___lwmod)),w
  3232  00CB  3E30               	addlw	030h
  3233  00CC  1283               	bcf	status, 5	;RP0=0, select bank0
  3234  00CD  1303               	bcf	status, 6	;RP1=0, select bank0
  3235  00CE  00A4               	movwf	(??_sprintf+1)+0
  3236  00CF  0824               	movf	(??_sprintf+1)+0,w
  3237  00D0  00AE               	movwf	(sprintf@c)
  3238                           	line	1516
  3239                           	
  3240  00D1                     i1l4290:	
  3241  00D1  082E               	movf	(sprintf@c),w
  3242  00D2  00A3               	movwf	(??_sprintf+0)+0
  3243  00D3  082D               	movf	(sprintf@sp),w
  3244  00D4  0084               	movwf	fsr0
  3245  00D5  0823               	movf	(??_sprintf+0)+0,w
  3246  00D6  1383               	bcf	status, 7	;select IRP bank0
  3247  00D7  0080               	movwf	indf
  3248                           	
  3249  00D8                     i1l4292:	
  3250  00D8  3001               	movlw	(01h)
  3251  00D9  00A3               	movwf	(??_sprintf+0)+0
  3252  00DA  0823               	movf	(??_sprintf+0)+0,w
  3253  00DB  07AD               	addwf	(sprintf@sp),f
  3254  00DC  28DD               	goto	i1l4294
  3255                           	line	1517
  3256                           	
  3257  00DD                     i1l1711:	
  3258                           	line	1469
  3259                           	
  3260  00DD                     i1l4294:	
  3261  00DD  30FF               	movlw	(-1)
  3262  00DE  00A3               	movwf	(??_sprintf+0)+0
  3263  00DF  0823               	movf	(??_sprintf+0)+0,w
  3264  00E0  07A8               	addwf	(sprintf@prec),f
  3265  00E1  0828               	movf	((sprintf@prec)),w
  3266  00E2  3AFF               	xorlw	-1
  3267  00E3  1D03               	skipz
  3268  00E4  28E6               	goto	u277_21
  3269  00E5  28E7               	goto	u277_20
  3270  00E6                     u277_21:
  3271  00E6  28A7               	goto	i1l4288
  3272  00E7                     u277_20:
  3273  00E7  28E9               	goto	i1l4296
  3274                           	
  3275  00E8                     i1l1713:	
  3276  00E8  28E9               	goto	i1l4296
  3277                           	line	1525
  3278                           	
  3279  00E9                     i1l1696:	
  3280                           	line	540
  3281                           	
  3282  00E9                     i1l4296:	
  3283  00E9  3001               	movlw	01h
  3284  00EA  07A0               	addwf	(sprintf@f),f
  3285  00EB  30FF               	movlw	-01h
  3286  00EC  0720               	addwf	(sprintf@f),w
  3287  00ED  0084               	movwf	fsr0
  3288  00EE  118A  230A  118A   	fcall	stringdir
  3289  00F1  00A3               	movwf	(??_sprintf+0)+0
  3290  00F2  0823               	movf	(??_sprintf+0)+0,w
  3291  00F3  00AE               	movwf	(sprintf@c)
  3292  00F4  08AE               	movf	((sprintf@c)),f
  3293  00F5  1D03               	skipz
  3294  00F6  28F8               	goto	u278_21
  3295  00F7  28F9               	goto	u278_20
  3296  00F8                     u278_21:
  3297  00F8  281B               	goto	i1l4246
  3298  00F9                     u278_20:
  3299  00F9  28FB               	goto	i1l4298
  3300                           	
  3301  00FA                     i1l1714:	
  3302  00FA  28FB               	goto	i1l4298
  3303                           	line	1527
  3304                           	
  3305  00FB                     i1l1701:	
  3306                           	line	1530
  3307                           	
  3308  00FB                     i1l4298:	
  3309  00FB  082D               	movf	(sprintf@sp),w
  3310  00FC  0084               	movwf	fsr0
  3311  00FD  1383               	bcf	status, 7	;select IRP bank0
  3312  00FE  0180               	clrf	indf
  3313  00FF  2900               	goto	i1l1715
  3314                           	line	1532
  3315                           	
  3316  0100                     i1l4300:	
  3317                           	line	1533
  3318                           ;	Return value of _sprintf is never used
  3319                           	
  3320  0100                     i1l1715:	
  3321  0100  0008               	return
  3322                           	opt stack 0
  3323                           GLOBAL	__end_of_sprintf
  3324  0101                     	__end_of_sprintf:
  3325 ;; =============== function _sprintf ends ============
  3326                           
  3327                           	signat	_sprintf,4698
  3328                           	global	_getc_spdswtch
  3329                           psect	text489,local,class=CODE,delta=2
  3330                           global __ptext489
  3331  05A2                     __ptext489:
  3332                           
  3333 ;; *************** function _getc_spdswtch *****************
  3334 ;; Defined at:
  3335 ;;		line 202 in file "../main.c"
  3336 ;; Parameters:    Size  Location     Type
  3337 ;;		None
  3338 ;; Auto vars:     Size  Location     Type
  3339 ;;		None
  3340 ;; Return value:  Size  Location     Type
  3341 ;;                  1    wreg      unsigned char 
  3342 ;; Registers used:
  3343 ;;		wreg, status,2, status,0, pclath, cstack
  3344 ;; Tracked objects:
  3345 ;;		On entry : 0/0
  3346 ;;		On exit  : 0/0
  3347 ;;		Unchanged: 0/0
  3348 ;; Data sizes:     COMMON   BANK0   BANK1   BANK2
  3349 ;;      Params:         0       0       0       0
  3350 ;;      Locals:         0       0       0       0
  3351 ;;      Temps:          0       0       0       0
  3352 ;;      Totals:         0       0       0       0
  3353 ;;Total ram usage:        0 bytes
  3354 ;; Hardware stack levels used:    1
  3355 ;; Hardware stack levels required when called:    1
  3356 ;; This function calls:
  3357 ;;		_get_c
  3358 ;; This function is called by:
  3359 ;;		_isr
  3360 ;; This function uses a non-reentrant model
  3361 ;;
  3362                           psect	text489
  3363                           	file	"../main.c"
  3364                           	line	202
  3365                           	global	__size_of_getc_spdswtch
  3366  0004                     	__size_of_getc_spdswtch	equ	__end_of_getc_spdswtch-_getc_spdswtch
  3367                           	
  3368  05A2                     _getc_spdswtch:	
  3369                           	opt	stack 2
  3370                           ; Regs used in _getc_spdswtch: [wreg+status,2+status,0+pclath+cstack]
  3371                           	line	208
  3372                           	
  3373  05A2                     i1l4228:	
  3374                           ;main.c: 208: get_c();
  3375  05A2  118A  24F9  118A   	fcall	_get_c
  3376                           	line	213
  3377                           	
  3378  05A5                     i1l772:	
  3379  05A5  0008               	return
  3380                           	opt stack 0
  3381                           GLOBAL	__end_of_getc_spdswtch
  3382  05A6                     	__end_of_getc_spdswtch:
  3383 ;; =============== function _getc_spdswtch ends ============
  3384                           
  3385                           	signat	_getc_spdswtch,89
  3386                           	global	i1_put_c
  3387                           psect	text490,local,class=CODE,delta=2
  3388                           global __ptext490
  3389  057D                     __ptext490:
  3390                           
  3391 ;; *************** function i1_put_c *****************
  3392 ;; Defined at:
  3393 ;;		line 38 in file "../uart.c"
  3394 ;; Parameters:    Size  Location     Type
  3395 ;;  put_c           1    wreg     unsigned char 
  3396 ;; Auto vars:     Size  Location     Type
  3397 ;;  put_c           1    0[COMMON] unsigned char 
  3398 ;; Return value:  Size  Location     Type
  3399 ;;		None               void
  3400 ;; Registers used:
  3401 ;;		wreg
  3402 ;; Tracked objects:
  3403 ;;		On entry : 0/0
  3404 ;;		On exit  : 0/0
  3405 ;;		Unchanged: 0/0
  3406 ;; Data sizes:     COMMON   BANK0   BANK1   BANK2
  3407 ;;      Params:         0       0       0       0
  3408 ;;      Locals:         1       0       0       0
  3409 ;;      Temps:          0       0       0       0
  3410 ;;      Totals:         1       0       0       0
  3411 ;;Total ram usage:        1 bytes
  3412 ;; Hardware stack levels used:    1
  3413 ;; This function calls:
  3414 ;;		Nothing
  3415 ;; This function is called by:
  3416 ;;		_isr
  3417 ;;		i1_putstring
  3418 ;; This function uses a non-reentrant model
  3419 ;;
  3420                           psect	text490
  3421                           	file	"../uart.c"
  3422                           	line	38
  3423                           	global	__size_ofi1_put_c
  3424  000C                     	__size_ofi1_put_c	equ	__end_ofi1_put_c-i1_put_c
  3425                           	
  3426  057D                     i1_put_c:	
  3427                           	opt	stack 3
  3428                           ; Regs used in i1_put_c: [wreg]
  3429                           ;i1put_c@c stored from wreg
  3430  057D  00F0               	movwf	(i1put_c@c)
  3431                           	line	39
  3432                           	
  3433  057E                     i1l4424:	
  3434                           ;uart.c: 39: while(!TXIF);
  3435  057E  2D7F               	goto	i1l1676
  3436                           	
  3437  057F                     i1l1677:	
  3438                           	
  3439  057F                     i1l1676:	
  3440  057F  1283               	bcf	status, 5	;RP0=0, select bank0
  3441  0580  1303               	bcf	status, 6	;RP1=0, select bank0
  3442  0581  1E0C               	btfss	(100/8),(100)&7
  3443  0582  2D84               	goto	u308_21
  3444  0583  2D85               	goto	u308_20
  3445  0584                     u308_21:
  3446  0584  2D7F               	goto	i1l1676
  3447  0585                     u308_20:
  3448  0585  2D86               	goto	i1l4426
  3449                           	
  3450  0586                     i1l1678:	
  3451                           	line	40
  3452                           	
  3453  0586                     i1l4426:	
  3454                           ;uart.c: 40: TXREG = c;
  3455  0586  0870               	movf	(i1put_c@c),w
  3456  0587  0099               	movwf	(25)	;volatile
  3457                           	line	41
  3458                           	
  3459  0588                     i1l1679:	
  3460  0588  0008               	return
  3461                           	opt stack 0
  3462                           GLOBAL	__end_ofi1_put_c
  3463  0589                     	__end_ofi1_put_c:
  3464 ;; =============== function i1_put_c ends ============
  3465                           
  3466                           	signat	i1_put_c,88
  3467                           	global	i1__delay_ms
  3468                           psect	text491,local,class=CODE,delta=2
  3469                           global __ptext491
  3470  04D3                     __ptext491:
  3471                           
  3472 ;; *************** function i1__delay_ms *****************
  3473 ;; Defined at:
  3474 ;;		line 165 in file "../main.c"
  3475 ;; Parameters:    Size  Location     Type
  3476 ;;  _delay_ms       2    0[COMMON] unsigned int 
  3477 ;; Auto vars:     Size  Location     Type
  3478 ;;  _delay_ms       1    4[COMMON] unsigned char 
  3479 ;;  _delay_ms       1    3[COMMON] unsigned char 
  3480 ;; Return value:  Size  Location     Type
  3481 ;;		None               void
  3482 ;; Registers used:
  3483 ;;		wreg, status,2, status,0
  3484 ;; Tracked objects:
  3485 ;;		On entry : 0/0
  3486 ;;		On exit  : 0/0
  3487 ;;		Unchanged: 0/0
  3488 ;; Data sizes:     COMMON   BANK0   BANK1   BANK2
  3489 ;;      Params:         2       0       0       0
  3490 ;;      Locals:         2       0       0       0
  3491 ;;      Temps:          1       0       0       0
  3492 ;;      Totals:         5       0       0       0
  3493 ;;Total ram usage:        5 bytes
  3494 ;; Hardware stack levels used:    1
  3495 ;; This function calls:
  3496 ;;		Nothing
  3497 ;; This function is called by:
  3498 ;;		_readADC
  3499 ;; This function uses a non-reentrant model
  3500 ;;
  3501                           psect	text491
  3502                           	file	"../main.c"
  3503                           	line	165
  3504                           	global	__size_ofi1__delay_ms
  3505  0026                     	__size_ofi1__delay_ms	equ	__end_ofi1__delay_ms-i1__delay_ms
  3506                           	
  3507  04D3                     i1__delay_ms:	
  3508                           	opt	stack 2
  3509                           ; Regs used in i1__delay_ms: [wreg+status,2+status,0]
  3510                           	line	167
  3511                           ;main.c: 166: unsigned char i;
  3512                           ;main.c: 167: do {
  3513                           	
  3514  04D3                     i1l754:	
  3515                           	line	168
  3516                           	
  3517  04D3                     i1l4406:	
  3518                           ;main.c: 168: i = 4;
  3519  04D3  3004               	movlw	(04h)
  3520  04D4  00F2               	movwf	(??i1__delay_ms+0)+0
  3521  04D5  0872               	movf	(??i1__delay_ms+0)+0,w
  3522  04D6  00F3               	movwf	(i1__delay_ms@i)
  3523                           	line	169
  3524                           ;main.c: 169: do {
  3525                           	
  3526  04D7                     i1l755:	
  3527                           	line	170
  3528                           ;main.c: 170: { unsigned char us; us = (164)/(12000000/8000000L)|1; while(--us != 0) con
                                 tinue; };
  3529  04D7  30A5               	movlw	(0A5h)
  3530  04D8  00F2               	movwf	(??i1__delay_ms+0)+0
  3531  04D9  0872               	movf	(??i1__delay_ms+0)+0,w
  3532  04DA  00F4               	movwf	(i1__delay_ms@us)
  3533  04DB  2CDD               	goto	i1l4408
  3534                           	
  3535  04DC                     i1l757:	
  3536  04DC  2CDD               	goto	i1l4408
  3537                           	
  3538  04DD                     i1l756:	
  3539                           	
  3540  04DD                     i1l4408:	
  3541  04DD  3001               	movlw	low(01h)
  3542  04DE  02F4               	subwf	(i1__delay_ms@us),f
  3543  04DF  1D03               	btfss	status,2
  3544  04E0  2CE2               	goto	u304_21
  3545  04E1  2CE3               	goto	u304_20
  3546  04E2                     u304_21:
  3547  04E2  2CDD               	goto	i1l4408
  3548  04E3                     u304_20:
  3549  04E3  2CE4               	goto	i1l4410
  3550                           	
  3551  04E4                     i1l758:	
  3552                           	line	171
  3553                           	
  3554  04E4                     i1l4410:	
  3555                           ;main.c: 171: } while(--i);
  3556  04E4  3001               	movlw	low(01h)
  3557  04E5  02F3               	subwf	(i1__delay_ms@i),f
  3558  04E6  1D03               	btfss	status,2
  3559  04E7  2CE9               	goto	u305_21
  3560  04E8  2CEA               	goto	u305_20
  3561  04E9                     u305_21:
  3562  04E9  2CD7               	goto	i1l755
  3563  04EA                     u305_20:
  3564  04EA  2CEB               	goto	i1l4412
  3565                           	
  3566  04EB                     i1l759:	
  3567                           	line	172
  3568                           	
  3569  04EB                     i1l4412:	
  3570                           ;main.c: 172: } while(--ms);
  3571  04EB  3001               	movlw	low(01h)
  3572  04EC  02F0               	subwf	(i1__delay_ms@ms),f
  3573  04ED  3000               	movlw	high(01h)
  3574  04EE  1C03               	skipc
  3575  04EF  03F1               	decf	(i1__delay_ms@ms+1),f
  3576  04F0  02F1               	subwf	(i1__delay_ms@ms+1),f
  3577  04F1  0871               	movf	(((i1__delay_ms@ms+1))),w
  3578  04F2  0470               	iorwf	(((i1__delay_ms@ms))),w
  3579  04F3  1D03               	skipz
  3580  04F4  2CF6               	goto	u306_21
  3581  04F5  2CF7               	goto	u306_20
  3582  04F6                     u306_21:
  3583  04F6  2CD3               	goto	i1l754
  3584  04F7                     u306_20:
  3585  04F7  2CF8               	goto	i1l761
  3586                           	
  3587  04F8                     i1l760:	
  3588                           	line	173
  3589                           	
  3590  04F8                     i1l761:	
  3591  04F8  0008               	return
  3592                           	opt stack 0
  3593                           GLOBAL	__end_ofi1__delay_ms
  3594  04F9                     	__end_ofi1__delay_ms:
  3595 ;; =============== function i1__delay_ms ends ============
  3596                           
  3597                           	signat	i1__delay_ms,88
  3598                           	global	___lwmod
  3599                           psect	text492,local,class=CODE,delta=2
  3600                           global __ptext492
  3601  039F                     __ptext492:
  3602                           
  3603 ;; *************** function ___lwmod *****************
  3604 ;; Defined at:
  3605 ;;		line 5 in file "/usr/hitech/picc/9.83/sources/lwmod.c"
  3606 ;; Parameters:    Size  Location     Type
  3607 ;;  divisor         2    8[COMMON] unsigned int 
  3608 ;;  dividend        2   10[COMMON] unsigned int 
  3609 ;; Auto vars:     Size  Location     Type
  3610 ;;  counter         1   13[COMMON] unsigned char 
  3611 ;; Return value:  Size  Location     Type
  3612 ;;                  2    8[COMMON] unsigned int 
  3613 ;; Registers used:
  3614 ;;		wreg, status,2, status,0
  3615 ;; Tracked objects:
  3616 ;;		On entry : 0/0
  3617 ;;		On exit  : 0/0
  3618 ;;		Unchanged: 0/0
  3619 ;; Data sizes:     COMMON   BANK0   BANK1   BANK2
  3620 ;;      Params:         4       0       0       0
  3621 ;;      Locals:         1       0       0       0
  3622 ;;      Temps:          1       0       0       0
  3623 ;;      Totals:         6       0       0       0
  3624 ;;Total ram usage:        6 bytes
  3625 ;; Hardware stack levels used:    1
  3626 ;; This function calls:
  3627 ;;		Nothing
  3628 ;; This function is called by:
  3629 ;;		_sprintf
  3630 ;; This function uses a non-reentrant model
  3631 ;;
  3632                           psect	text492
  3633                           	file	"/usr/hitech/picc/9.83/sources/lwmod.c"
  3634                           	line	5
  3635                           	global	__size_of___lwmod
  3636  0044                     	__size_of___lwmod	equ	__end_of___lwmod-___lwmod
  3637                           	
  3638  039F                     ___lwmod:	
  3639                           	opt	stack 1
  3640                           ; Regs used in ___lwmod: [wreg+status,2+status,0]
  3641                           	line	8
  3642                           	
  3643  039F                     i1l4342:	
  3644  039F  0879               	movf	(___lwmod@divisor+1),w
  3645  03A0  0478               	iorwf	(___lwmod@divisor),w
  3646  03A1  1903               	skipnz
  3647  03A2  2BA4               	goto	u288_21
  3648  03A3  2BA5               	goto	u288_20
  3649  03A4                     u288_21:
  3650  03A4  2BDB               	goto	i1l4360
  3651  03A5                     u288_20:
  3652                           	line	9
  3653                           	
  3654  03A5                     i1l4344:	
  3655  03A5  01FD               	clrf	(___lwmod@counter)
  3656  03A6  1403               	bsf	status,0
  3657  03A7  0DFD               	rlf	(___lwmod@counter),f
  3658                           	line	10
  3659  03A8  2BB5               	goto	i1l4350
  3660                           	
  3661  03A9                     i1l2592:	
  3662                           	line	11
  3663                           	
  3664  03A9                     i1l4346:	
  3665  03A9  3001               	movlw	01h
  3666                           	
  3667  03AA                     u289_25:
  3668  03AA  1003               	clrc
  3669  03AB  0DF8               	rlf	(___lwmod@divisor),f
  3670  03AC  0DF9               	rlf	(___lwmod@divisor+1),f
  3671  03AD  3EFF               	addlw	-1
  3672  03AE  1D03               	skipz
  3673  03AF  2BAA               	goto	u289_25
  3674                           	line	12
  3675                           	
  3676  03B0                     i1l4348:	
  3677  03B0  3001               	movlw	(01h)
  3678  03B1  00FC               	movwf	(??___lwmod+0)+0
  3679  03B2  087C               	movf	(??___lwmod+0)+0,w
  3680  03B3  07FD               	addwf	(___lwmod@counter),f
  3681  03B4  2BB5               	goto	i1l4350
  3682                           	line	13
  3683                           	
  3684  03B5                     i1l2591:	
  3685                           	line	10
  3686                           	
  3687  03B5                     i1l4350:	
  3688  03B5  1FF9               	btfss	(___lwmod@divisor+1),(15)&7
  3689  03B6  2BB8               	goto	u290_21
  3690  03B7  2BB9               	goto	u290_20
  3691  03B8                     u290_21:
  3692  03B8  2BA9               	goto	i1l4346
  3693  03B9                     u290_20:
  3694  03B9  2BBB               	goto	i1l4352
  3695                           	
  3696  03BA                     i1l2593:	
  3697  03BA  2BBB               	goto	i1l4352
  3698                           	line	14
  3699                           	
  3700  03BB                     i1l2594:	
  3701                           	line	15
  3702                           	
  3703  03BB                     i1l4352:	
  3704  03BB  0879               	movf	(___lwmod@divisor+1),w
  3705  03BC  027B               	subwf	(___lwmod@dividend+1),w
  3706  03BD  1D03               	skipz
  3707  03BE  2BC1               	goto	u291_25
  3708  03BF  0878               	movf	(___lwmod@divisor),w
  3709  03C0  027A               	subwf	(___lwmod@dividend),w
  3710  03C1                     u291_25:
  3711  03C1  1C03               	skipc
  3712  03C2  2BC4               	goto	u291_21
  3713  03C3  2BC5               	goto	u291_20
  3714  03C4                     u291_21:
  3715  03C4  2BCC               	goto	i1l4356
  3716  03C5                     u291_20:
  3717                           	line	16
  3718                           	
  3719  03C5                     i1l4354:	
  3720  03C5  0878               	movf	(___lwmod@divisor),w
  3721  03C6  02FA               	subwf	(___lwmod@dividend),f
  3722  03C7  0879               	movf	(___lwmod@divisor+1),w
  3723  03C8  1C03               	skipc
  3724  03C9  03FB               	decf	(___lwmod@dividend+1),f
  3725  03CA  02FB               	subwf	(___lwmod@dividend+1),f
  3726  03CB  2BCC               	goto	i1l4356
  3727                           	
  3728  03CC                     i1l2595:	
  3729                           	line	17
  3730                           	
  3731  03CC                     i1l4356:	
  3732  03CC  3001               	movlw	01h
  3733                           	
  3734  03CD                     u292_25:
  3735  03CD  1003               	clrc
  3736  03CE  0CF9               	rrf	(___lwmod@divisor+1),f
  3737  03CF  0CF8               	rrf	(___lwmod@divisor),f
  3738  03D0  3EFF               	addlw	-1
  3739  03D1  1D03               	skipz
  3740  03D2  2BCD               	goto	u292_25
  3741                           	line	18
  3742                           	
  3743  03D3                     i1l4358:	
  3744  03D3  3001               	movlw	low(01h)
  3745  03D4  02FD               	subwf	(___lwmod@counter),f
  3746  03D5  1D03               	btfss	status,2
  3747  03D6  2BD8               	goto	u293_21
  3748  03D7  2BD9               	goto	u293_20
  3749  03D8                     u293_21:
  3750  03D8  2BBB               	goto	i1l4352
  3751  03D9                     u293_20:
  3752  03D9  2BDB               	goto	i1l4360
  3753                           	
  3754  03DA                     i1l2596:	
  3755  03DA  2BDB               	goto	i1l4360
  3756                           	line	19
  3757                           	
  3758  03DB                     i1l2590:	
  3759                           	line	20
  3760                           	
  3761  03DB                     i1l4360:	
  3762  03DB  087B               	movf	(___lwmod@dividend+1),w
  3763  03DC  01F9               	clrf	(?___lwmod+1)
  3764  03DD  07F9               	addwf	(?___lwmod+1)
  3765  03DE  087A               	movf	(___lwmod@dividend),w
  3766  03DF  01F8               	clrf	(?___lwmod)
  3767  03E0  07F8               	addwf	(?___lwmod)
  3768                           
  3769  03E1  2BE2               	goto	i1l2597
  3770                           	
  3771  03E2                     i1l4362:	
  3772                           	line	21
  3773                           	
  3774  03E2                     i1l2597:	
  3775  03E2  0008               	return
  3776                           	opt stack 0
  3777                           GLOBAL	__end_of___lwmod
  3778  03E3                     	__end_of___lwmod:
  3779 ;; =============== function ___lwmod ends ============
  3780                           
  3781                           	signat	___lwmod,8314
  3782                           	global	___lwdiv
  3783                           psect	text493,local,class=CODE,delta=2
  3784                           global __ptext493
  3785  0351                     __ptext493:
  3786                           
  3787 ;; *************** function ___lwdiv *****************
  3788 ;; Defined at:
  3789 ;;		line 5 in file "/usr/hitech/picc/9.83/sources/lwdiv.c"
  3790 ;; Parameters:    Size  Location     Type
  3791 ;;  divisor         2    0[COMMON] unsigned int 
  3792 ;;  dividend        2    2[COMMON] unsigned int 
  3793 ;; Auto vars:     Size  Location     Type
  3794 ;;  quotient        2    5[COMMON] unsigned int 
  3795 ;;  counter         1    7[COMMON] unsigned char 
  3796 ;; Return value:  Size  Location     Type
  3797 ;;                  2    0[COMMON] unsigned int 
  3798 ;; Registers used:
  3799 ;;		wreg, status,2, status,0
  3800 ;; Tracked objects:
  3801 ;;		On entry : 0/0
  3802 ;;		On exit  : 0/0
  3803 ;;		Unchanged: 0/0
  3804 ;; Data sizes:     COMMON   BANK0   BANK1   BANK2
  3805 ;;      Params:         4       0       0       0
  3806 ;;      Locals:         3       0       0       0
  3807 ;;      Temps:          1       0       0       0
  3808 ;;      Totals:         8       0       0       0
  3809 ;;Total ram usage:        8 bytes
  3810 ;; Hardware stack levels used:    1
  3811 ;; This function calls:
  3812 ;;		Nothing
  3813 ;; This function is called by:
  3814 ;;		_sprintf
  3815 ;; This function uses a non-reentrant model
  3816 ;;
  3817                           psect	text493
  3818                           	file	"/usr/hitech/picc/9.83/sources/lwdiv.c"
  3819                           	line	5
  3820                           	global	__size_of___lwdiv
  3821  004E                     	__size_of___lwdiv	equ	__end_of___lwdiv-___lwdiv
  3822                           	
  3823  0351                     ___lwdiv:	
  3824                           	opt	stack 1
  3825                           ; Regs used in ___lwdiv: [wreg+status,2+status,0]
  3826                           	line	9
  3827                           	
  3828  0351                     i1l4316:	
  3829  0351  01F5               	clrf	(___lwdiv@quotient)
  3830  0352  01F6               	clrf	(___lwdiv@quotient+1)
  3831                           	line	10
  3832                           	
  3833  0353                     i1l4318:	
  3834  0353  0871               	movf	(___lwdiv@divisor+1),w
  3835  0354  0470               	iorwf	(___lwdiv@divisor),w
  3836  0355  1903               	skipnz
  3837  0356  2B58               	goto	u281_21
  3838  0357  2B59               	goto	u281_20
  3839  0358                     u281_21:
  3840  0358  2B97               	goto	i1l4338
  3841  0359                     u281_20:
  3842                           	line	11
  3843                           	
  3844  0359                     i1l4320:	
  3845  0359  01F7               	clrf	(___lwdiv@counter)
  3846  035A  1403               	bsf	status,0
  3847  035B  0DF7               	rlf	(___lwdiv@counter),f
  3848                           	line	12
  3849  035C  2B69               	goto	i1l4326
  3850                           	
  3851  035D                     i1l2582:	
  3852                           	line	13
  3853                           	
  3854  035D                     i1l4322:	
  3855  035D  3001               	movlw	01h
  3856                           	
  3857  035E                     u282_25:
  3858  035E  1003               	clrc
  3859  035F  0DF0               	rlf	(___lwdiv@divisor),f
  3860  0360  0DF1               	rlf	(___lwdiv@divisor+1),f
  3861  0361  3EFF               	addlw	-1
  3862  0362  1D03               	skipz
  3863  0363  2B5E               	goto	u282_25
  3864                           	line	14
  3865                           	
  3866  0364                     i1l4324:	
  3867  0364  3001               	movlw	(01h)
  3868  0365  00F4               	movwf	(??___lwdiv+0)+0
  3869  0366  0874               	movf	(??___lwdiv+0)+0,w
  3870  0367  07F7               	addwf	(___lwdiv@counter),f
  3871  0368  2B69               	goto	i1l4326
  3872                           	line	15
  3873                           	
  3874  0369                     i1l2581:	
  3875                           	line	12
  3876                           	
  3877  0369                     i1l4326:	
  3878  0369  1FF1               	btfss	(___lwdiv@divisor+1),(15)&7
  3879  036A  2B6C               	goto	u283_21
  3880  036B  2B6D               	goto	u283_20
  3881  036C                     u283_21:
  3882  036C  2B5D               	goto	i1l4322
  3883  036D                     u283_20:
  3884  036D  2B6F               	goto	i1l4328
  3885                           	
  3886  036E                     i1l2583:	
  3887  036E  2B6F               	goto	i1l4328
  3888                           	line	16
  3889                           	
  3890  036F                     i1l2584:	
  3891                           	line	17
  3892                           	
  3893  036F                     i1l4328:	
  3894  036F  3001               	movlw	01h
  3895                           	
  3896  0370                     u284_25:
  3897  0370  1003               	clrc
  3898  0371  0DF5               	rlf	(___lwdiv@quotient),f
  3899  0372  0DF6               	rlf	(___lwdiv@quotient+1),f
  3900  0373  3EFF               	addlw	-1
  3901  0374  1D03               	skipz
  3902  0375  2B70               	goto	u284_25
  3903                           	line	18
  3904  0376  0871               	movf	(___lwdiv@divisor+1),w
  3905  0377  0273               	subwf	(___lwdiv@dividend+1),w
  3906  0378  1D03               	skipz
  3907  0379  2B7C               	goto	u285_25
  3908  037A  0870               	movf	(___lwdiv@divisor),w
  3909  037B  0272               	subwf	(___lwdiv@dividend),w
  3910  037C                     u285_25:
  3911  037C  1C03               	skipc
  3912  037D  2B7F               	goto	u285_21
  3913  037E  2B80               	goto	u285_20
  3914  037F                     u285_21:
  3915  037F  2B88               	goto	i1l4334
  3916  0380                     u285_20:
  3917                           	line	19
  3918                           	
  3919  0380                     i1l4330:	
  3920  0380  0870               	movf	(___lwdiv@divisor),w
  3921  0381  02F2               	subwf	(___lwdiv@dividend),f
  3922  0382  0871               	movf	(___lwdiv@divisor+1),w
  3923  0383  1C03               	skipc
  3924  0384  03F3               	decf	(___lwdiv@dividend+1),f
  3925  0385  02F3               	subwf	(___lwdiv@dividend+1),f
  3926                           	line	20
  3927                           	
  3928  0386                     i1l4332:	
  3929  0386  1475               	bsf	(___lwdiv@quotient)+(0/8),(0)&7
  3930  0387  2B88               	goto	i1l4334
  3931                           	line	21
  3932                           	
  3933  0388                     i1l2585:	
  3934                           	line	22
  3935                           	
  3936  0388                     i1l4334:	
  3937  0388  3001               	movlw	01h
  3938                           	
  3939  0389                     u286_25:
  3940  0389  1003               	clrc
  3941  038A  0CF1               	rrf	(___lwdiv@divisor+1),f
  3942  038B  0CF0               	rrf	(___lwdiv@divisor),f
  3943  038C  3EFF               	addlw	-1
  3944  038D  1D03               	skipz
  3945  038E  2B89               	goto	u286_25
  3946                           	line	23
  3947                           	
  3948  038F                     i1l4336:	
  3949  038F  3001               	movlw	low(01h)
  3950  0390  02F7               	subwf	(___lwdiv@counter),f
  3951  0391  1D03               	btfss	status,2
  3952  0392  2B94               	goto	u287_21
  3953  0393  2B95               	goto	u287_20
  3954  0394                     u287_21:
  3955  0394  2B6F               	goto	i1l4328
  3956  0395                     u287_20:
  3957  0395  2B97               	goto	i1l4338
  3958                           	
  3959  0396                     i1l2586:	
  3960  0396  2B97               	goto	i1l4338
  3961                           	line	24
  3962                           	
  3963  0397                     i1l2580:	
  3964                           	line	25
  3965                           	
  3966  0397                     i1l4338:	
  3967  0397  0876               	movf	(___lwdiv@quotient+1),w
  3968  0398  01F1               	clrf	(?___lwdiv+1)
  3969  0399  07F1               	addwf	(?___lwdiv+1)
  3970  039A  0875               	movf	(___lwdiv@quotient),w
  3971  039B  01F0               	clrf	(?___lwdiv)
  3972  039C  07F0               	addwf	(?___lwdiv)
  3973                           
  3974  039D  2B9E               	goto	i1l2587
  3975                           	
  3976  039E                     i1l4340:	
  3977                           	line	26
  3978                           	
  3979  039E                     i1l2587:	
  3980  039E  0008               	return
  3981                           	opt stack 0
  3982                           GLOBAL	__end_of___lwdiv
  3983  039F                     	__end_of___lwdiv:
  3984 ;; =============== function ___lwdiv ends ============
  3985                           
  3986                           	signat	___lwdiv,8314
  3987                           	global	_get_c
  3988                           psect	text494,local,class=CODE,delta=2
  3989                           global __ptext494
  3990  04F9                     __ptext494:
  3991                           
  3992 ;; *************** function _get_c *****************
  3993 ;; Defined at:
  3994 ;;		line 44 in file "../uart.c"
  3995 ;; Parameters:    Size  Location     Type
  3996 ;;		None
  3997 ;; Auto vars:     Size  Location     Type
  3998 ;;  c               1    1[COMMON] unsigned char 
  3999 ;; Return value:  Size  Location     Type
  4000 ;;                  1    wreg      unsigned char 
  4001 ;; Registers used:
  4002 ;;		wreg
  4003 ;; Tracked objects:
  4004 ;;		On entry : 0/0
  4005 ;;		On exit  : 0/0
  4006 ;;		Unchanged: 0/0
  4007 ;; Data sizes:     COMMON   BANK0   BANK1   BANK2
  4008 ;;      Params:         0       0       0       0
  4009 ;;      Locals:         1       0       0       0
  4010 ;;      Temps:          1       0       0       0
  4011 ;;      Totals:         2       0       0       0
  4012 ;;Total ram usage:        2 bytes
  4013 ;; Hardware stack levels used:    1
  4014 ;; This function calls:
  4015 ;;		Nothing
  4016 ;; This function is called by:
  4017 ;;		_getc_spdswtch
  4018 ;; This function uses a non-reentrant model
  4019 ;;
  4020                           psect	text494
  4021                           	file	"../uart.c"
  4022                           	line	44
  4023                           	global	__size_of_get_c
  4024  001E                     	__size_of_get_c	equ	__end_of_get_c-_get_c
  4025                           	
  4026  04F9                     _get_c:	
  4027                           	opt	stack 2
  4028                           ; Regs used in _get_c: [wreg]
  4029                           	line	47
  4030                           	
  4031  04F9                     i1l4302:	
  4032                           ;uart.c: 45: unsigned char c;
  4033                           ;uart.c: 47: while (!RCIF)
  4034  04F9  2D0A               	goto	i1l4310
  4035                           	
  4036  04FA                     i1l1683:	
  4037                           	line	49
  4038                           ;uart.c: 48: {
  4039                           ;uart.c: 49: if(OERR)
  4040  04FA  1C98               	btfss	(193/8),(193)&7
  4041  04FB  2CFD               	goto	u279_21
  4042  04FC  2CFE               	goto	u279_20
  4043  04FD                     u279_21:
  4044  04FD  2D0A               	goto	i1l4310
  4045  04FE                     u279_20:
  4046                           	line	51
  4047                           	
  4048  04FE                     i1l4304:	
  4049                           ;uart.c: 50: {
  4050                           ;uart.c: 51: c = RCREG;
  4051  04FE  081A               	movf	(26),w	;volatile
  4052  04FF  00F0               	movwf	(??_get_c+0)+0
  4053  0500  0870               	movf	(??_get_c+0)+0,w
  4054  0501  00F1               	movwf	(get_c@c)
  4055                           	line	52
  4056                           ;uart.c: 52: c = RCREG;
  4057  0502  081A               	movf	(26),w	;volatile
  4058  0503  00F0               	movwf	(??_get_c+0)+0
  4059  0504  0870               	movf	(??_get_c+0)+0,w
  4060  0505  00F1               	movwf	(get_c@c)
  4061                           	line	53
  4062                           	
  4063  0506                     i1l4306:	
  4064                           ;uart.c: 53: CREN = 0;
  4065  0506  1218               	bcf	(196/8),(196)&7
  4066                           	line	54
  4067                           	
  4068  0507                     i1l4308:	
  4069                           ;uart.c: 54: CREN = 1;
  4070  0507  1618               	bsf	(196/8),(196)&7
  4071  0508  2D0A               	goto	i1l4310
  4072                           	line	55
  4073                           	
  4074  0509                     i1l1684:	
  4075  0509  2D0A               	goto	i1l4310
  4076                           	line	56
  4077                           	
  4078  050A                     i1l1682:	
  4079                           	line	47
  4080                           	
  4081  050A                     i1l4310:	
  4082  050A  1283               	bcf	status, 5	;RP0=0, select bank0
  4083  050B  1303               	bcf	status, 6	;RP1=0, select bank0
  4084  050C  1E8C               	btfss	(101/8),(101)&7
  4085  050D  2D0F               	goto	u280_21
  4086  050E  2D10               	goto	u280_20
  4087  050F                     u280_21:
  4088  050F  2CFA               	goto	i1l1683
  4089  0510                     u280_20:
  4090                           	
  4091  0510                     i1l1685:	
  4092                           	line	58
  4093                           ;uart.c: 55: }
  4094                           ;uart.c: 56: }
  4095                           ;uart.c: 58: if (FERR)
  4096  0510  2D11               	goto	i1l4312
  4097                           	line	61
  4098                           ;uart.c: 59: {
  4099                           	
  4100  0511                     i1l1686:	
  4101                           	line	62
  4102                           	
  4103  0511                     i1l4312:	
  4104                           ;uart.c: 61: }
  4105                           ;uart.c: 62: c = RCREG;
  4106  0511  081A               	movf	(26),w	;volatile
  4107  0512  00F0               	movwf	(??_get_c+0)+0
  4108  0513  0870               	movf	(??_get_c+0)+0,w
  4109  0514  00F1               	movwf	(get_c@c)
  4110  0515  2D16               	goto	i1l1687
  4111                           	line	64
  4112                           	
  4113  0516                     i1l4314:	
  4114                           	line	65
  4115                           ;uart.c: 64: return c;
  4116                           ;	Return value of _get_c is never used
  4117                           	
  4118  0516                     i1l1687:	
  4119  0516  0008               	return
  4120                           	opt stack 0
  4121                           GLOBAL	__end_of_get_c
  4122  0517                     	__end_of_get_c:
  4123 ;; =============== function _get_c ends ============
  4124                           
  4125                           	signat	_get_c,89
  4126                           psect	text495,local,class=CODE,delta=2
  4127                           global __ptext495
  4128  0000                     __ptext495:
  4129                           	global	btemp
  4130  007E                     	btemp set 07Eh
  4131                           
  4132                           	DABS	1,126,2	;btemp
  4133                           	global	wtemp0
  4134  007E                     	wtemp0 set btemp


HI-TECH Software PICC Macro Assembler V9.83 build 10920 
Symbol Table                                                                                   Mon Nov 25 22:01:43 2013

                            pc 0002                             _RD 0C60                             _WR 0C61  
                           fsr 0004                    i1__delay_ms 04D3                            l751 047E  
                          l760 04D2                            l761 04D2                            l754 04AB  
                          l746 052E                            l755 04B1                            l747 052F  
                          l756 04B7                            l748 052F                            l757 04B6  
                          l758 04BE                            l759 04C5                            l775 0593  
                          _GIE 005F                            _RA0 0028                            _isr 0101  
                          fsr0 0004                            indf 0000            __end_ofi1_putstring 04AB  
                         l4230 056F                           l1670 043D                           l1671 0423  
                         l4232 0576                           l4240 04BE                           l4400 024B  
                         l1664 041D                           l1672 044F                           l1673 044F  
                         l4234 059D                           l4242 04C5                           l4402 0257  
                         l1667 05A1                           l1676 0570                           l4236 04AB  
                         l4404 0260                           l1677 0570                           l1678 0576  
                         l4238 04B7                           l4430 0456                           l1679 057C  
                         l4440 046D                           l4432 0457                           l2770 01E3  
                         l4370 01CF                           l4450 0479                           l4442 0471  
                         l4434 045C                           l2771 0247                           l2772 0205  
                         l4380 01F3                           l4372 01D3                           l4364 01B9  
                         l4452 047C                           l4444 0474                           l4436 0460  
                         l4428 0450                           l4460 0404                           l2773 01F7  
                         l4390 0226                           l2774 020A                           l4382 01F7  
                         l4374 01DE                           l4366 01C0                           l4454 047D  
                         l4446 0476                           l4438 0469                           l4470 0410  
                         l4462 0406                           l2775 020B                           l2776 0236  
                         l4392 0234                           l4384 0205                           l4376 01E3  
                         l4368 01CB                           l4448 0477                           l4472 0413  
                         l4464 0409                           l4456 03E3                           l4480 041E  
                         l2777 0246                           l2769 01CF                           l2778 0257  
                         l4394 0236                           l4386 020B                           l4378 01EB  
                         l4474 0416                           l4466 040D                           l4458 0402  
                         l4482 0423                           l4490 0517                           l2779 0260  
                         l4396 023F                           l4388 0214                           l4476 0419  
                         l4468 040F                           l4484 0434                           l4492 0527  
                         l4398 0247                           l4478 041C                           l4486 043D  
                         l4494 052A                           l4488 058C                           ?_isr 0070  
                         _ADON 00F8                           STR_1 031A                           STR_2 0346  
                         STR_3 034C                           STR_4 0347                           STR_5 034C  
                         _CREN 00C4                           _FERR 00C2                           u3000 0226  
                         u3001 0225                           u3020 0245                           u3021 0244  
                         u3005 0222                           u3030 024B                           u3015 0237  
                         u3090 044E                           u3091 044D                           u2700 04D1  
                         u2701 04D0                           u2670 0575                           u2671 0574  
                         u2680 04BD                           u2681 04BC                           u2690 04C4  
                         u2691 04C3                           _PEIE 005E                           u2940 01C0  
                         u2941 01BF                           u2950 01D3                           u2951 01D2  
                         u2960 01F3                           u2961 01F2                           _RCIE 0465  
                         u2980 0209                           _RCIF 0065                           u2981 0208  
                         u2975 01F9                           u2995 020D                           _OERR 00C1  
                         _SPEN 00C7                           _WREN 0C62                           _TXEN 04C5  
                         _TXIF 0064                           _main 0517                           _init 0450  
                         btemp 007E                           start 0011              i1putstring@string 0071  
              __end_ofi1_put_c 0589    __size_of_putstring_spdswtch 000B                          ??_isr 003D  
                i1__delay_ms@i 0073                __end_of___aldiv 0261                          ?_main 0070  
                        ?_init 0070                          _EEADR 010D                          _ANS11 08FB  
                        _CARRY 0018                          _ANSEL 011E                          _T1CON 0010  
              __end_of___lwdiv 039F                __end_of___lwmod 03E3                          i1l740 015F  
                        i1l741 016B                          i1l733 013C                          i1l742 01A6  
                        i1l734 011E                          i1l743 01AC                          i1l735 013B  
                        i1l760 04F8                          i1l736 01AC                          i1l761 04F8  
                        i1l754 04D3                          i1l755 04D7                          i1l739 019F  
                        i1l756 04DD                          i1l772 05A5                          i1l764 0265  
                        i1l757 04DC                          i1l765 0265                          i1l758 04E4  
                        i1l766 026A                          i1l759 04EB                          i1l775 059C  
                        i1l767 02B3                          i1l768 02CF                          i1l769 02CF  
                        _RCREG 001A                          _RCSTA 0018                   __delay_ms@ms 00B9  
                 __delay_ms@us 00BD                          _SPBRG 0099                          _PORTB 0006  
                        _PORTC 0007                          _TRISA 0085                          _TRISB 0086  
                        _TRISC 0087                          _TXREG 0019                          _TXSTA 0098  
              __end_of_readADC 02D0                          _get_c 04F9                          _put_c 056C  
                        pclath 000A                          status 0003                          wtemp0 007E  
              __end_of_sprintf 0101              ??_uart_interrupts 00B9                ??_getc_spdswtch 0072  
                 __end_of_main 0531                   __end_of_init 047F                         ??_main 00CE  
                  i1_putstring 047F                         ??_init 00BE                 i1__delay_ms@ms 0070  
               i1__delay_ms@us 0074                         ?_get_c 0070                         _ADCON0 001F  
                       _ADCON1 009F                         _ADRESH 001E                         _ADRESL 009E  
                       _EEDATA 010C                         _EECON1 018C                         _EECON2 018D  
                       ?_put_c 0070                         _ANSELH 011F                         _GODONE 00F9  
                       i1l1700 002F                         i1l1701 00FB                         i1l1710 00A2  
                       i1l1702 0030                         i1l1711 00DD                         i1l1703 0031  
                       i1l1712 00A7                         i1l1704 0047                         i1l4200 01AA  
                       i1l1713 00E8                         i1l1705 0032                         i1l1714 00FA  
                       i1l1706 0061                         i1l4210 028A                         i1l4202 0261  
                       i1l1715 0100                         i1l1707 006C                         i1l4300 0100  
                       i1l1708 0090                         i1l4220 02AF                         i1l4212 028E  
                       i1l4204 026A                         i1l1709 0085                         i1l4310 050A  
                       i1l4302 04F9                         i1l1670 0498                         i1l4214 029E  
                       i1l4222 02B3                         i1l4206 0275                         i1l4150 0115  
                       i1l4142 0101                         i1l1671 0482                         i1l4312 0511  
                       i1l4304 04FE                         i1l4320 0359                         i1l1672 04AA  
                       i1l4224 02B7                         i1l4216 02A5                         i1l4208 0281  
                       i1l4160 0123                         i1l4152 0118                         i1l4144 0107  
                       i1l1673 04AA                         i1l4314 0516                         i1l1682 050A  
                       i1l4306 0506                         i1l4330 0380                         i1l4322 035D  
                       i1l4410 04E4                         i1l4250 0028                         i1l4226 02C7  
                       i1l4218 02A8                         i1l4170 0143                         i1l4162 0129  
                       i1l4154 011C                         i1l4146 010D                         i1l1683 04FA  
                       i1l1684 0509                         i1l4308 0507                         i1l4340 039E  
                       i1l2580 0397                         i1l4332 0386                         i1l4324 0364  
                       i1l4316 0351                         i1l4412 04EB                         i1l1676 057F  
                       i1l4228 05A2                         i1l4260 0053                         i1l4252 0033  
                       i1l4244 0016                         i1l4420 0491                         i1l4180 016B  
                       i1l4172 0147                         i1l4164 0136                         i1l4148 0114  
                       i1l4156 011E                         i1l1685 0510                         i1l2581 0369  
                       i1l1677 057F                         i1l1686 0511                         i1l4334 0388  
                       i1l2582 035D                         i1l4326 0369                         i1l4318 0353  
                       i1l2590 03DB                         i1l4350 03B5                         i1l4342 039F  
                       i1l4406 04D3                         i1l1678 0586                         i1l4270 006B  
                       i1l4262 0057                         i1l4254 0034                         i1l4246 001B  
                       i1l4422 0498                         i1l4414 0595                         i1l4190 018B  
                       i1l4182 0173                         i1l4174 015C                         i1l4158 011F  
                       i1l4166 013C                         i1l1687 0516                         i1l2583 036E  
                       i1l2591 03B5                         i1l1679 0588                         i1l4336 038F  
                       i1l2584 036F                         i1l4328 036F                         i1l4352 03BB  
                       i1l2592 03A9                         i1l4344 03A5                         i1l4360 03DB  
                       i1l4408 04DD                         i1l4424 057E                         i1l1696 00E9  
                       i1l4280 0090                         i1l4272 006C                         i1l4264 005B  
                       i1l4256 0047                         i1l4248 0021                         i1l4416 047F  
                       i1l4192 0193                         i1l4184 0177                         i1l4176 015F  
                       i1l4168 0142                         i1l2585 0388                         i1l2593 03BA  
                       i1l1697 001B                         i1l2586 0396                         i1l4338 0397  
                       i1l4362 03E2                         i1l4354 03C5                         i1l2594 03BB  
                       i1l4346 03A9                         i1l4426 0586                         i1l4290 00D1  
                       i1l4282 0096                         i1l4274 0084                         i1l4266 0061  
                       i1l4258 004F                         i1l1698 002D                         i1l4418 0482  
                       i1l4194 0198                         i1l4186 017B                         i1l4178 0166  
                       i1l2587 039E                         i1l2595 03CC                         i1l1699 0034  
                       i1l2596 03DA                         i1l4356 03CC                         i1l4348 03B0  
                       i1l4292 00D8                         i1l4284 009D                         i1l4276 0085  
                       i1l4268 0064                         i1l4188 0183                         i1l4196 019F  
                       i1l2597 03E2                         i1l4358 03D3                         i1l4294 00DD  
                       i1l4286 00A2                         i1l4278 0089                         i1l4198 01A6  
                       i1l4288 00A7                         i1l4296 00E9                         i1l4298 00FB  
                       u304_20 04E3                         u304_21 04E2                         u305_20 04EA  
                       u305_21 04E9                         u306_20 04F7                         u306_21 04F6  
                       u307_20 04A9                         u307_21 04A8                         u308_20 0585  
                       u260_20 0136                         u308_21 0584                         u260_21 0135  
                       u260_25 0132                         u261_20 0142                         u261_21 0141  
                       u262_20 014F                         u271_20 0021                         u263_20 0166  
                       u271_21 0020                         u263_21 0165                         u280_20 0510  
                       u272_20 0057                         u264_20 01A5                         u280_21 050F  
                       u272_21 0056                         u264_21 01A4                         u281_20 0359  
                       u273_20 006A                         u265_20 0269                         u257_20 0107  
                       u281_21 0358                         u273_21 0069                         u265_21 0268  
                       u257_21 0106                         u290_20 03B9                         u274_20 0083  
                       u266_20 028A                         u258_20 010D                         u290_21 03B8  
                       u274_21 0082                         u266_21 0289                         u258_21 010C  
                       u282_25 035E                         u274_25 007F                         u283_20 036D  
                       u291_20 03C5                         u275_20 008F                         u259_20 0114  
                       u283_21 036C                         u291_21 03C4                         u275_21 008E  
                       u259_21 0113                         u291_25 03C1                         u276_20 0096  
                       u276_21 0095                         u284_25 0370                         u292_25 03CD  
                       u285_20 0380                         u293_20 03D9                         u277_20 00E7  
                       u285_21 037F                         u293_21 03D8                         u277_21 00E6  
                       u285_25 037C                         u278_20 00F9                         u278_21 00F8  
                       u286_25 0389                         u279_20 04FE                         u287_20 0395  
                       u279_21 04FD                         u287_21 0394                         u288_20 03A5  
                       u288_21 03A4                         u289_25 03AA                         _OSCCON 008F  
                    ??i1_put_c 0070                         _TMR1IE 0460                         _TMR1IF 0060  
                       _SPBRGH 009A                      ??___aldiv 00C1                      ??___lwdiv 0074  
                    ??___lwmod 007C                         get_c@c 0071                      ??_readADC 002F  
             isr@input_counter 005F                         saved_w 007E                         put_c@c 00B9  
                    ??_sprintf 0023   __end_ofi1_putstring_spdswtch 059D             __size_of__delay_ms 0028  
               __pcstackCOMMON 0070                   __pidataBANK1 0531                  __end_of_get_c 0517  
                __end_of_put_c 057D                   ?i1__delay_ms 0070                        ??_get_c 0070  
                      ??_put_c 00B9                     __pbssBANK0 0061                     __pmaintext 0517  
                   __pintentry 0004                        _BAUDCTL 009B              __end_of__delay_ms 04D3  
     putstring_spdswtch@string 00BE             __size_of_uart_init 003B                _uart_interrupts 059D  
                      i1_put_c 057D             __size_of_putstring 0032     __end_of_putstring_spdswtch 0594  
                      ___aldiv 01B9     i1putstring_spdswtch@string 0075                        ___lwdiv 0351  
                      ___lwmod 039F           i1_putstring_spdswtch 0594                   ?i1_putstring 0071  
                readADC@output 0031                        _readADC 0261                        _counter 0061  
                      _dpowers 0310                   __size_of_isr 00B8               ___aldiv@dividend 00BD  
                 putstring@chr 00BC                        isr@F746 00A0                        _sprintf 0013  
         end_of_initialization 0558                        init_ram 055F              __end_of_uart_init 041E  
        __end_of_getc_spdswtch 05A6                putstring@string 00BA               ___aldiv@quotient 00C4  
        ?i1_putstring_spdswtch 0070        __end_of_uart_interrupts 05A2              __end_of_putstring 0450  
         __size_ofi1__delay_ms 0026                 i1putstring@chr 0073                    __delay_ms@i 00BC  
          start_initialization 054A                    __end_of_isr 01B9             uart_init@BRG_VALUE 00CC  
       ??i1_putstring_spdswtch 0075                    __pdataBANK1 00A0                readADC@adcValue 003B  
             ?_uart_interrupts 0070           __size_ofi1_putstring 002C                  __pcstackBANK0 0020  
                __pcstackBANK1 00B9                      __delay_ms 04AB                       ?i1_put_c 0070  
                  sprintf@_val 0029                    sprintf@flag 0027                    sprintf@prec 0028  
             ___lwdiv@dividend 0072                       ?___aldiv 00B9                      __ptext480 01B9  
                    __ptext481 04AB                      __ptext490 057D                      __ptext482 059D  
                    __ptext491 04D3                      __ptext483 056C                      __ptext492 039F  
                    __ptext484 0101                      __ptext476 0589                      __ptext493 0351  
                    __ptext485 0261                      __ptext477 041E                      __ptext494 04F9  
                    __ptext486 0594                      __ptext478 03E3                      __ptext495 0000  
                    __ptext487 047F                      __ptext479 0450                      __ptext488 0013  
                    __ptext489 05A2                       ?___lwdiv 0070                       ?___lwmod 0078  
           _putstring_spdswtch 0589                      __pstrings 0300                       ?_readADC 0070  
          ?_putstring_spdswtch 0070                     ?__delay_ms 00B9               ___lwdiv@quotient 0075  
               __size_of_get_c 001E                       ?_sprintf 0020                 __size_of_put_c 0011  
              ___aldiv@divisor 00B9              interrupt_function 0004                ___aldiv@counter 00C2  
         ??_putstring_spdswtch 00BE                      _uart_init 03E3                    __stringbase 030F  
                    _putstring 041E                       i1put_c@c 0070               __size_ofi1_put_c 000C  
                    isr@retval 005E                      init_fetch 055B                     ?_uart_init 00C8  
             __size_of___aldiv 00A8               __size_of___lwdiv 004E               __size_of___lwmod 0044  
                ??i1__delay_ms 0072               __size_of_readADC 006F                ___lwdiv@divisor 0070  
                   ?_putstring 00BA                ___lwdiv@counter 0077                    ??__delay_ms 00BB  
       __size_of_getc_spdswtch 0004               __size_of_sprintf 00EE                  __size_of_main 001A  
                __size_of_init 002F                       isr@input 0045            __end_ofi1__delay_ms 04F9  
                     intlevel1 0000                      sprintf@ap 0026                      sprintf@sp 002D  
             ___lwmod@dividend 007A                  uart_init@FOSC 00C8                      stringcode 030A  
                _getc_spdswtch 05A2                    ??_uart_init 00CC  __size_ofi1_putstring_spdswtch 0009  
                ??i1_putstring 0073                       sprintf@c 002E                       sprintf@f 0020  
              ___lwmod@divisor 0078                ___lwmod@counter 007D                       stringdir 030A  
                     stringtab 0300                   ___aldiv@sign 00C3                    ??_putstring 00BC  
     __size_of_uart_interrupts 0005                 ?_getc_spdswtch 0070  
